ARM GAS  /var/folders/sd/sw6_rvdd1xd6sxxq8gkv_lph0000gn/T//cc7sexlg.s 			page 1


   1              		.cpu cortex-m4
   2              		.eabi_attribute 27, 1
   3              		.eabi_attribute 28, 1
   4              		.eabi_attribute 20, 1
   5              		.eabi_attribute 21, 1
   6              		.eabi_attribute 23, 3
   7              		.eabi_attribute 24, 1
   8              		.eabi_attribute 25, 1
   9              		.eabi_attribute 26, 1
  10              		.eabi_attribute 30, 1
  11              		.eabi_attribute 34, 1
  12              		.eabi_attribute 18, 4
  13              		.file	"stm32f4xx_hal_i2s_ex.c"
  14              		.text
  15              	.Ltext0:
  16              		.cfi_sections	.debug_frame
  17              		.section	.text.I2SEx_FullDuplexWaitFlagStateUntilTimeout,"ax",%progbits
  18              		.align	1
  19              		.arch armv7e-m
  20              		.syntax unified
  21              		.thumb
  22              		.thumb_func
  23              		.fpu fpv4-sp-d16
  25              	I2SEx_FullDuplexWaitFlagStateUntilTimeout:
  26              	.LVL0:
  27              	.LFB143:
  28              		.file 1 "Drivers/STM32F4xx_HAL_Driver/Src/stm32f4xx_hal_i2s_ex.c"
   1:Drivers/STM32F4xx_HAL_Driver/Src/stm32f4xx_hal_i2s_ex.c **** /**
   2:Drivers/STM32F4xx_HAL_Driver/Src/stm32f4xx_hal_i2s_ex.c ****   ******************************************************************************
   3:Drivers/STM32F4xx_HAL_Driver/Src/stm32f4xx_hal_i2s_ex.c ****   * @file    stm32f4xx_hal_i2s_ex.c
   4:Drivers/STM32F4xx_HAL_Driver/Src/stm32f4xx_hal_i2s_ex.c ****   * @author  MCD Application Team
   5:Drivers/STM32F4xx_HAL_Driver/Src/stm32f4xx_hal_i2s_ex.c ****   * @brief   I2S HAL module driver.
   6:Drivers/STM32F4xx_HAL_Driver/Src/stm32f4xx_hal_i2s_ex.c ****   *          This file provides firmware functions to manage the following
   7:Drivers/STM32F4xx_HAL_Driver/Src/stm32f4xx_hal_i2s_ex.c ****   *          functionalities of I2S extension peripheral:
   8:Drivers/STM32F4xx_HAL_Driver/Src/stm32f4xx_hal_i2s_ex.c ****   *           + Extension features Functions
   9:Drivers/STM32F4xx_HAL_Driver/Src/stm32f4xx_hal_i2s_ex.c ****   *
  10:Drivers/STM32F4xx_HAL_Driver/Src/stm32f4xx_hal_i2s_ex.c ****   @verbatim
  11:Drivers/STM32F4xx_HAL_Driver/Src/stm32f4xx_hal_i2s_ex.c ****   ==============================================================================
  12:Drivers/STM32F4xx_HAL_Driver/Src/stm32f4xx_hal_i2s_ex.c ****                     ##### I2S Extension features #####
  13:Drivers/STM32F4xx_HAL_Driver/Src/stm32f4xx_hal_i2s_ex.c ****   ==============================================================================
  14:Drivers/STM32F4xx_HAL_Driver/Src/stm32f4xx_hal_i2s_ex.c ****   [..]
  15:Drivers/STM32F4xx_HAL_Driver/Src/stm32f4xx_hal_i2s_ex.c ****      (#) In I2S full duplex mode, each SPI peripheral is able to manage sending and receiving
  16:Drivers/STM32F4xx_HAL_Driver/Src/stm32f4xx_hal_i2s_ex.c ****          data simultaneously using two data lines. Each SPI peripheral has an extended block
  17:Drivers/STM32F4xx_HAL_Driver/Src/stm32f4xx_hal_i2s_ex.c ****          called I2Sxext (i.e I2S2ext for SPI2 and I2S3ext for SPI3).
  18:Drivers/STM32F4xx_HAL_Driver/Src/stm32f4xx_hal_i2s_ex.c ****      (#) The extension block is not a full SPI IP, it is used only as I2S slave to
  19:Drivers/STM32F4xx_HAL_Driver/Src/stm32f4xx_hal_i2s_ex.c ****          implement full duplex mode. The extension block uses the same clock sources
  20:Drivers/STM32F4xx_HAL_Driver/Src/stm32f4xx_hal_i2s_ex.c ****          as its master.
  21:Drivers/STM32F4xx_HAL_Driver/Src/stm32f4xx_hal_i2s_ex.c **** 
  22:Drivers/STM32F4xx_HAL_Driver/Src/stm32f4xx_hal_i2s_ex.c ****      (#) Both I2Sx and I2Sx_ext can be configured as transmitters or receivers.
  23:Drivers/STM32F4xx_HAL_Driver/Src/stm32f4xx_hal_i2s_ex.c **** 
  24:Drivers/STM32F4xx_HAL_Driver/Src/stm32f4xx_hal_i2s_ex.c ****      [..]
  25:Drivers/STM32F4xx_HAL_Driver/Src/stm32f4xx_hal_i2s_ex.c ****        (@) Only I2Sx can deliver SCK and WS to I2Sx_ext in full duplex mode, where
  26:Drivers/STM32F4xx_HAL_Driver/Src/stm32f4xx_hal_i2s_ex.c ****          I2Sx can be I2S2 or I2S3.
  27:Drivers/STM32F4xx_HAL_Driver/Src/stm32f4xx_hal_i2s_ex.c **** 
  28:Drivers/STM32F4xx_HAL_Driver/Src/stm32f4xx_hal_i2s_ex.c ****                   ##### How to use this driver #####
  29:Drivers/STM32F4xx_HAL_Driver/Src/stm32f4xx_hal_i2s_ex.c ****  ===============================================================================
  30:Drivers/STM32F4xx_HAL_Driver/Src/stm32f4xx_hal_i2s_ex.c ****  [..]
ARM GAS  /var/folders/sd/sw6_rvdd1xd6sxxq8gkv_lph0000gn/T//cc7sexlg.s 			page 2


  31:Drivers/STM32F4xx_HAL_Driver/Src/stm32f4xx_hal_i2s_ex.c ****    Three operation modes are available within this driver :
  32:Drivers/STM32F4xx_HAL_Driver/Src/stm32f4xx_hal_i2s_ex.c **** 
  33:Drivers/STM32F4xx_HAL_Driver/Src/stm32f4xx_hal_i2s_ex.c ****    *** Polling mode IO operation ***
  34:Drivers/STM32F4xx_HAL_Driver/Src/stm32f4xx_hal_i2s_ex.c ****    =================================
  35:Drivers/STM32F4xx_HAL_Driver/Src/stm32f4xx_hal_i2s_ex.c ****    [..]
  36:Drivers/STM32F4xx_HAL_Driver/Src/stm32f4xx_hal_i2s_ex.c ****      (+) Send and receive in the same time an amount of data in blocking mode using HAL_I2SEx_Trans
  37:Drivers/STM32F4xx_HAL_Driver/Src/stm32f4xx_hal_i2s_ex.c **** 
  38:Drivers/STM32F4xx_HAL_Driver/Src/stm32f4xx_hal_i2s_ex.c ****    *** Interrupt mode IO operation ***
  39:Drivers/STM32F4xx_HAL_Driver/Src/stm32f4xx_hal_i2s_ex.c ****    ===================================
  40:Drivers/STM32F4xx_HAL_Driver/Src/stm32f4xx_hal_i2s_ex.c ****    [..]
  41:Drivers/STM32F4xx_HAL_Driver/Src/stm32f4xx_hal_i2s_ex.c ****      (+) Send and receive in the same time an amount of data in non blocking mode using HAL_I2SEx_T
  42:Drivers/STM32F4xx_HAL_Driver/Src/stm32f4xx_hal_i2s_ex.c ****      (+) At transmission/reception end of transfer HAL_I2SEx_TxRxCpltCallback is executed and user 
  43:Drivers/STM32F4xx_HAL_Driver/Src/stm32f4xx_hal_i2s_ex.c ****          add his own code by customization of function pointer HAL_I2SEx_TxRxCpltCallback
  44:Drivers/STM32F4xx_HAL_Driver/Src/stm32f4xx_hal_i2s_ex.c ****      (+) In case of transfer Error, HAL_I2S_ErrorCallback() function is executed and user can
  45:Drivers/STM32F4xx_HAL_Driver/Src/stm32f4xx_hal_i2s_ex.c ****          add his own code by customization of function pointer HAL_I2S_ErrorCallback
  46:Drivers/STM32F4xx_HAL_Driver/Src/stm32f4xx_hal_i2s_ex.c **** 
  47:Drivers/STM32F4xx_HAL_Driver/Src/stm32f4xx_hal_i2s_ex.c ****    *** DMA mode IO operation ***
  48:Drivers/STM32F4xx_HAL_Driver/Src/stm32f4xx_hal_i2s_ex.c ****    ==============================
  49:Drivers/STM32F4xx_HAL_Driver/Src/stm32f4xx_hal_i2s_ex.c ****    [..]
  50:Drivers/STM32F4xx_HAL_Driver/Src/stm32f4xx_hal_i2s_ex.c ****      (+) Send and receive an amount of data in non blocking mode (DMA) using HAL_I2SEx_TransmitRece
  51:Drivers/STM32F4xx_HAL_Driver/Src/stm32f4xx_hal_i2s_ex.c ****      (+) At transmission/reception end of transfer HAL_I2SEx_TxRxCpltCallback is executed and user 
  52:Drivers/STM32F4xx_HAL_Driver/Src/stm32f4xx_hal_i2s_ex.c ****          add his own code by customization of function pointer HAL_I2S_TxRxCpltCallback
  53:Drivers/STM32F4xx_HAL_Driver/Src/stm32f4xx_hal_i2s_ex.c ****      (+) In case of transfer Error, HAL_I2S_ErrorCallback() function is executed and user can
  54:Drivers/STM32F4xx_HAL_Driver/Src/stm32f4xx_hal_i2s_ex.c ****          add his own code by customization of function pointer HAL_I2S_ErrorCallback
  55:Drivers/STM32F4xx_HAL_Driver/Src/stm32f4xx_hal_i2s_ex.c ****      (+) __HAL_I2SEXT_FLUSH_RX_DR: In Full-Duplex Slave mode, if HAL_I2S_DMAStop is used to stop th
  56:Drivers/STM32F4xx_HAL_Driver/Src/stm32f4xx_hal_i2s_ex.c ****          communication, an error HAL_I2S_ERROR_BUSY_LINE_RX is raised as the master continue to tra
  57:Drivers/STM32F4xx_HAL_Driver/Src/stm32f4xx_hal_i2s_ex.c ****          In this case __HAL_I2SEXT_FLUSH_RX_DR macro must be used to flush the remaining data
  58:Drivers/STM32F4xx_HAL_Driver/Src/stm32f4xx_hal_i2s_ex.c ****          inside I2Sx and I2Sx_ext DR registers and avoid using DeInit/Init process for the next tra
  59:Drivers/STM32F4xx_HAL_Driver/Src/stm32f4xx_hal_i2s_ex.c ****   @endverbatim
  60:Drivers/STM32F4xx_HAL_Driver/Src/stm32f4xx_hal_i2s_ex.c **** 
  61:Drivers/STM32F4xx_HAL_Driver/Src/stm32f4xx_hal_i2s_ex.c ****  Additional Figure: The Extended block uses the same clock sources as its master.
  62:Drivers/STM32F4xx_HAL_Driver/Src/stm32f4xx_hal_i2s_ex.c **** 
  63:Drivers/STM32F4xx_HAL_Driver/Src/stm32f4xx_hal_i2s_ex.c ****                 +-----------------------+
  64:Drivers/STM32F4xx_HAL_Driver/Src/stm32f4xx_hal_i2s_ex.c ****     I2Sx_SCK    |                       |
  65:Drivers/STM32F4xx_HAL_Driver/Src/stm32f4xx_hal_i2s_ex.c ****  ----------+-->|          I2Sx         |------------------->I2Sx_SD(in/out)
  66:Drivers/STM32F4xx_HAL_Driver/Src/stm32f4xx_hal_i2s_ex.c ****          +--|-->|                       |
  67:Drivers/STM32F4xx_HAL_Driver/Src/stm32f4xx_hal_i2s_ex.c ****         |   |   +-----------------------+
  68:Drivers/STM32F4xx_HAL_Driver/Src/stm32f4xx_hal_i2s_ex.c ****         |   |
  69:Drivers/STM32F4xx_HAL_Driver/Src/stm32f4xx_hal_i2s_ex.c ****  I2S_WS |   |
  70:Drivers/STM32F4xx_HAL_Driver/Src/stm32f4xx_hal_i2s_ex.c ****  ------>|   |
  71:Drivers/STM32F4xx_HAL_Driver/Src/stm32f4xx_hal_i2s_ex.c ****         |   |   +-----------------------+
  72:Drivers/STM32F4xx_HAL_Driver/Src/stm32f4xx_hal_i2s_ex.c ****         |   +-->|                       |
  73:Drivers/STM32F4xx_HAL_Driver/Src/stm32f4xx_hal_i2s_ex.c ****         |       |       I2Sx_ext        |------------------->I2Sx_extSD(in/out)
  74:Drivers/STM32F4xx_HAL_Driver/Src/stm32f4xx_hal_i2s_ex.c ****          +----->|                       |
  75:Drivers/STM32F4xx_HAL_Driver/Src/stm32f4xx_hal_i2s_ex.c ****                 +-----------------------+
  76:Drivers/STM32F4xx_HAL_Driver/Src/stm32f4xx_hal_i2s_ex.c ****   ******************************************************************************
  77:Drivers/STM32F4xx_HAL_Driver/Src/stm32f4xx_hal_i2s_ex.c ****   * @attention
  78:Drivers/STM32F4xx_HAL_Driver/Src/stm32f4xx_hal_i2s_ex.c ****   *
  79:Drivers/STM32F4xx_HAL_Driver/Src/stm32f4xx_hal_i2s_ex.c ****   * <h2><center>&copy; Copyright (c) 2016 STMicroelectronics.
  80:Drivers/STM32F4xx_HAL_Driver/Src/stm32f4xx_hal_i2s_ex.c ****   * All rights reserved.</center></h2>
  81:Drivers/STM32F4xx_HAL_Driver/Src/stm32f4xx_hal_i2s_ex.c ****   *
  82:Drivers/STM32F4xx_HAL_Driver/Src/stm32f4xx_hal_i2s_ex.c ****   * This software component is licensed by ST under BSD 3-Clause license,
  83:Drivers/STM32F4xx_HAL_Driver/Src/stm32f4xx_hal_i2s_ex.c ****   * the "License"; You may not use this file except in compliance with the
  84:Drivers/STM32F4xx_HAL_Driver/Src/stm32f4xx_hal_i2s_ex.c ****   * License. You may obtain a copy of the License at:
  85:Drivers/STM32F4xx_HAL_Driver/Src/stm32f4xx_hal_i2s_ex.c ****   *                        opensource.org/licenses/BSD-3-Clause
  86:Drivers/STM32F4xx_HAL_Driver/Src/stm32f4xx_hal_i2s_ex.c ****   *
  87:Drivers/STM32F4xx_HAL_Driver/Src/stm32f4xx_hal_i2s_ex.c ****   ******************************************************************************
ARM GAS  /var/folders/sd/sw6_rvdd1xd6sxxq8gkv_lph0000gn/T//cc7sexlg.s 			page 3


  88:Drivers/STM32F4xx_HAL_Driver/Src/stm32f4xx_hal_i2s_ex.c ****   */
  89:Drivers/STM32F4xx_HAL_Driver/Src/stm32f4xx_hal_i2s_ex.c **** 
  90:Drivers/STM32F4xx_HAL_Driver/Src/stm32f4xx_hal_i2s_ex.c **** /* Includes ------------------------------------------------------------------*/
  91:Drivers/STM32F4xx_HAL_Driver/Src/stm32f4xx_hal_i2s_ex.c **** #include "stm32f4xx_hal.h"
  92:Drivers/STM32F4xx_HAL_Driver/Src/stm32f4xx_hal_i2s_ex.c **** 
  93:Drivers/STM32F4xx_HAL_Driver/Src/stm32f4xx_hal_i2s_ex.c **** /** @addtogroup STM32F4xx_HAL_Driver
  94:Drivers/STM32F4xx_HAL_Driver/Src/stm32f4xx_hal_i2s_ex.c ****   * @{
  95:Drivers/STM32F4xx_HAL_Driver/Src/stm32f4xx_hal_i2s_ex.c ****   */
  96:Drivers/STM32F4xx_HAL_Driver/Src/stm32f4xx_hal_i2s_ex.c **** 
  97:Drivers/STM32F4xx_HAL_Driver/Src/stm32f4xx_hal_i2s_ex.c **** #ifdef HAL_I2S_MODULE_ENABLED
  98:Drivers/STM32F4xx_HAL_Driver/Src/stm32f4xx_hal_i2s_ex.c **** 
  99:Drivers/STM32F4xx_HAL_Driver/Src/stm32f4xx_hal_i2s_ex.c **** /** @defgroup I2SEx I2SEx
 100:Drivers/STM32F4xx_HAL_Driver/Src/stm32f4xx_hal_i2s_ex.c ****   * @brief I2S Extended HAL module driver
 101:Drivers/STM32F4xx_HAL_Driver/Src/stm32f4xx_hal_i2s_ex.c ****   * @{
 102:Drivers/STM32F4xx_HAL_Driver/Src/stm32f4xx_hal_i2s_ex.c ****   */
 103:Drivers/STM32F4xx_HAL_Driver/Src/stm32f4xx_hal_i2s_ex.c **** 
 104:Drivers/STM32F4xx_HAL_Driver/Src/stm32f4xx_hal_i2s_ex.c **** #if defined (SPI_I2S_FULLDUPLEX_SUPPORT)
 105:Drivers/STM32F4xx_HAL_Driver/Src/stm32f4xx_hal_i2s_ex.c **** 
 106:Drivers/STM32F4xx_HAL_Driver/Src/stm32f4xx_hal_i2s_ex.c **** /* Private typedef -----------------------------------------------------------*/
 107:Drivers/STM32F4xx_HAL_Driver/Src/stm32f4xx_hal_i2s_ex.c **** /** @defgroup I2SEx_Private_Typedef I2S Extended Private Typedef
 108:Drivers/STM32F4xx_HAL_Driver/Src/stm32f4xx_hal_i2s_ex.c ****   * @{
 109:Drivers/STM32F4xx_HAL_Driver/Src/stm32f4xx_hal_i2s_ex.c ****   */
 110:Drivers/STM32F4xx_HAL_Driver/Src/stm32f4xx_hal_i2s_ex.c **** typedef enum
 111:Drivers/STM32F4xx_HAL_Driver/Src/stm32f4xx_hal_i2s_ex.c **** {
 112:Drivers/STM32F4xx_HAL_Driver/Src/stm32f4xx_hal_i2s_ex.c ****   I2S_USE_I2S      = 0x00U,   /*!< I2Sx should be used      */
 113:Drivers/STM32F4xx_HAL_Driver/Src/stm32f4xx_hal_i2s_ex.c ****   I2S_USE_I2SEXT   = 0x01U,   /*!< I2Sx_ext should be used  */
 114:Drivers/STM32F4xx_HAL_Driver/Src/stm32f4xx_hal_i2s_ex.c **** } I2S_UseTypeDef;
 115:Drivers/STM32F4xx_HAL_Driver/Src/stm32f4xx_hal_i2s_ex.c **** /**
 116:Drivers/STM32F4xx_HAL_Driver/Src/stm32f4xx_hal_i2s_ex.c ****   * @}
 117:Drivers/STM32F4xx_HAL_Driver/Src/stm32f4xx_hal_i2s_ex.c ****   */
 118:Drivers/STM32F4xx_HAL_Driver/Src/stm32f4xx_hal_i2s_ex.c **** /* Private define ------------------------------------------------------------*/
 119:Drivers/STM32F4xx_HAL_Driver/Src/stm32f4xx_hal_i2s_ex.c **** /* Private macro -------------------------------------------------------------*/
 120:Drivers/STM32F4xx_HAL_Driver/Src/stm32f4xx_hal_i2s_ex.c **** /* Private variables ---------------------------------------------------------*/
 121:Drivers/STM32F4xx_HAL_Driver/Src/stm32f4xx_hal_i2s_ex.c **** /* Private function prototypes -----------------------------------------------*/
 122:Drivers/STM32F4xx_HAL_Driver/Src/stm32f4xx_hal_i2s_ex.c **** /** @defgroup I2SEx_Private_Functions I2S Extended Private Functions
 123:Drivers/STM32F4xx_HAL_Driver/Src/stm32f4xx_hal_i2s_ex.c ****   * @{
 124:Drivers/STM32F4xx_HAL_Driver/Src/stm32f4xx_hal_i2s_ex.c ****   */
 125:Drivers/STM32F4xx_HAL_Driver/Src/stm32f4xx_hal_i2s_ex.c **** static void I2SEx_TxRxDMAHalfCplt(DMA_HandleTypeDef *hdma);
 126:Drivers/STM32F4xx_HAL_Driver/Src/stm32f4xx_hal_i2s_ex.c **** static void I2SEx_TxRxDMACplt(DMA_HandleTypeDef *hdma);
 127:Drivers/STM32F4xx_HAL_Driver/Src/stm32f4xx_hal_i2s_ex.c **** static void I2SEx_TxRxDMAError(DMA_HandleTypeDef *hdma);
 128:Drivers/STM32F4xx_HAL_Driver/Src/stm32f4xx_hal_i2s_ex.c **** static void I2SEx_RxISR_I2S(I2S_HandleTypeDef *hi2s);
 129:Drivers/STM32F4xx_HAL_Driver/Src/stm32f4xx_hal_i2s_ex.c **** static void I2SEx_RxISR_I2SExt(I2S_HandleTypeDef *hi2s);
 130:Drivers/STM32F4xx_HAL_Driver/Src/stm32f4xx_hal_i2s_ex.c **** static void I2SEx_TxISR_I2S(I2S_HandleTypeDef *hi2s);
 131:Drivers/STM32F4xx_HAL_Driver/Src/stm32f4xx_hal_i2s_ex.c **** static void I2SEx_TxISR_I2SExt(I2S_HandleTypeDef *hi2s);
 132:Drivers/STM32F4xx_HAL_Driver/Src/stm32f4xx_hal_i2s_ex.c **** static HAL_StatusTypeDef I2SEx_FullDuplexWaitFlagStateUntilTimeout(I2S_HandleTypeDef *hi2s,
 133:Drivers/STM32F4xx_HAL_Driver/Src/stm32f4xx_hal_i2s_ex.c ****                                                                    uint32_t Flag,
 134:Drivers/STM32F4xx_HAL_Driver/Src/stm32f4xx_hal_i2s_ex.c ****                                                                    uint32_t State,
 135:Drivers/STM32F4xx_HAL_Driver/Src/stm32f4xx_hal_i2s_ex.c ****                                                                    uint32_t Timeout,
 136:Drivers/STM32F4xx_HAL_Driver/Src/stm32f4xx_hal_i2s_ex.c ****                                                                    I2S_UseTypeDef i2sUsed);
 137:Drivers/STM32F4xx_HAL_Driver/Src/stm32f4xx_hal_i2s_ex.c **** /**
 138:Drivers/STM32F4xx_HAL_Driver/Src/stm32f4xx_hal_i2s_ex.c ****   * @}
 139:Drivers/STM32F4xx_HAL_Driver/Src/stm32f4xx_hal_i2s_ex.c ****   */
 140:Drivers/STM32F4xx_HAL_Driver/Src/stm32f4xx_hal_i2s_ex.c **** 
 141:Drivers/STM32F4xx_HAL_Driver/Src/stm32f4xx_hal_i2s_ex.c **** /**
 142:Drivers/STM32F4xx_HAL_Driver/Src/stm32f4xx_hal_i2s_ex.c ****   * @}
 143:Drivers/STM32F4xx_HAL_Driver/Src/stm32f4xx_hal_i2s_ex.c ****   */
 144:Drivers/STM32F4xx_HAL_Driver/Src/stm32f4xx_hal_i2s_ex.c **** 
ARM GAS  /var/folders/sd/sw6_rvdd1xd6sxxq8gkv_lph0000gn/T//cc7sexlg.s 			page 4


 145:Drivers/STM32F4xx_HAL_Driver/Src/stm32f4xx_hal_i2s_ex.c **** /* Private functions ---------------------------------------------------------*/
 146:Drivers/STM32F4xx_HAL_Driver/Src/stm32f4xx_hal_i2s_ex.c **** /* Exported functions --------------------------------------------------------*/
 147:Drivers/STM32F4xx_HAL_Driver/Src/stm32f4xx_hal_i2s_ex.c **** 
 148:Drivers/STM32F4xx_HAL_Driver/Src/stm32f4xx_hal_i2s_ex.c **** /** @addtogroup I2SEx I2SEx
 149:Drivers/STM32F4xx_HAL_Driver/Src/stm32f4xx_hal_i2s_ex.c ****   * @{
 150:Drivers/STM32F4xx_HAL_Driver/Src/stm32f4xx_hal_i2s_ex.c ****   */
 151:Drivers/STM32F4xx_HAL_Driver/Src/stm32f4xx_hal_i2s_ex.c **** 
 152:Drivers/STM32F4xx_HAL_Driver/Src/stm32f4xx_hal_i2s_ex.c **** /** @addtogroup I2SEx_Exported_Functions I2S Extended Exported Functions
 153:Drivers/STM32F4xx_HAL_Driver/Src/stm32f4xx_hal_i2s_ex.c ****   * @{
 154:Drivers/STM32F4xx_HAL_Driver/Src/stm32f4xx_hal_i2s_ex.c ****   */
 155:Drivers/STM32F4xx_HAL_Driver/Src/stm32f4xx_hal_i2s_ex.c **** 
 156:Drivers/STM32F4xx_HAL_Driver/Src/stm32f4xx_hal_i2s_ex.c **** /** @defgroup I2SEx_Exported_Functions_Group1 I2S Extended IO operation functions
 157:Drivers/STM32F4xx_HAL_Driver/Src/stm32f4xx_hal_i2s_ex.c ****   *  @brief   I2SEx IO operation functions
 158:Drivers/STM32F4xx_HAL_Driver/Src/stm32f4xx_hal_i2s_ex.c ****   *
 159:Drivers/STM32F4xx_HAL_Driver/Src/stm32f4xx_hal_i2s_ex.c **** @verbatim
 160:Drivers/STM32F4xx_HAL_Driver/Src/stm32f4xx_hal_i2s_ex.c ****  ===============================================================================
 161:Drivers/STM32F4xx_HAL_Driver/Src/stm32f4xx_hal_i2s_ex.c ****                        ##### IO operation functions#####
 162:Drivers/STM32F4xx_HAL_Driver/Src/stm32f4xx_hal_i2s_ex.c ****  ===============================================================================
 163:Drivers/STM32F4xx_HAL_Driver/Src/stm32f4xx_hal_i2s_ex.c ****     [..]
 164:Drivers/STM32F4xx_HAL_Driver/Src/stm32f4xx_hal_i2s_ex.c ****     This subsection provides a set of functions allowing to manage the I2S data
 165:Drivers/STM32F4xx_HAL_Driver/Src/stm32f4xx_hal_i2s_ex.c ****     transfers.
 166:Drivers/STM32F4xx_HAL_Driver/Src/stm32f4xx_hal_i2s_ex.c **** 
 167:Drivers/STM32F4xx_HAL_Driver/Src/stm32f4xx_hal_i2s_ex.c ****     (#) There are two modes of transfer:
 168:Drivers/STM32F4xx_HAL_Driver/Src/stm32f4xx_hal_i2s_ex.c ****        (++) Blocking mode : The communication is performed in the polling mode.
 169:Drivers/STM32F4xx_HAL_Driver/Src/stm32f4xx_hal_i2s_ex.c ****             The status of all data processing is returned by the same function
 170:Drivers/STM32F4xx_HAL_Driver/Src/stm32f4xx_hal_i2s_ex.c ****             after finishing transfer.
 171:Drivers/STM32F4xx_HAL_Driver/Src/stm32f4xx_hal_i2s_ex.c ****        (++) No-Blocking mode : The communication is performed using Interrupts
 172:Drivers/STM32F4xx_HAL_Driver/Src/stm32f4xx_hal_i2s_ex.c ****             or DMA. These functions return the status of the transfer startup.
 173:Drivers/STM32F4xx_HAL_Driver/Src/stm32f4xx_hal_i2s_ex.c ****             The end of the data processing will be indicated through the
 174:Drivers/STM32F4xx_HAL_Driver/Src/stm32f4xx_hal_i2s_ex.c ****             dedicated I2S IRQ when using Interrupt mode or the DMA IRQ when
 175:Drivers/STM32F4xx_HAL_Driver/Src/stm32f4xx_hal_i2s_ex.c ****             using DMA mode.
 176:Drivers/STM32F4xx_HAL_Driver/Src/stm32f4xx_hal_i2s_ex.c **** 
 177:Drivers/STM32F4xx_HAL_Driver/Src/stm32f4xx_hal_i2s_ex.c ****     (#) Blocking mode functions are :
 178:Drivers/STM32F4xx_HAL_Driver/Src/stm32f4xx_hal_i2s_ex.c ****         (++) HAL_I2SEx_TransmitReceive()
 179:Drivers/STM32F4xx_HAL_Driver/Src/stm32f4xx_hal_i2s_ex.c **** 
 180:Drivers/STM32F4xx_HAL_Driver/Src/stm32f4xx_hal_i2s_ex.c ****     (#) No-Blocking mode functions with Interrupt are :
 181:Drivers/STM32F4xx_HAL_Driver/Src/stm32f4xx_hal_i2s_ex.c ****         (++) HAL_I2SEx_TransmitReceive_IT()
 182:Drivers/STM32F4xx_HAL_Driver/Src/stm32f4xx_hal_i2s_ex.c ****         (++) HAL_I2SEx_FullDuplex_IRQHandler()
 183:Drivers/STM32F4xx_HAL_Driver/Src/stm32f4xx_hal_i2s_ex.c **** 
 184:Drivers/STM32F4xx_HAL_Driver/Src/stm32f4xx_hal_i2s_ex.c ****     (#) No-Blocking mode functions with DMA are :
 185:Drivers/STM32F4xx_HAL_Driver/Src/stm32f4xx_hal_i2s_ex.c ****         (++) HAL_I2SEx_TransmitReceive_DMA()
 186:Drivers/STM32F4xx_HAL_Driver/Src/stm32f4xx_hal_i2s_ex.c **** 
 187:Drivers/STM32F4xx_HAL_Driver/Src/stm32f4xx_hal_i2s_ex.c ****     (#) A set of Transfer Complete Callback are provided in non Blocking mode:
 188:Drivers/STM32F4xx_HAL_Driver/Src/stm32f4xx_hal_i2s_ex.c ****         (++) HAL_I2SEx_TxRxCpltCallback()
 189:Drivers/STM32F4xx_HAL_Driver/Src/stm32f4xx_hal_i2s_ex.c **** @endverbatim
 190:Drivers/STM32F4xx_HAL_Driver/Src/stm32f4xx_hal_i2s_ex.c ****   * @{
 191:Drivers/STM32F4xx_HAL_Driver/Src/stm32f4xx_hal_i2s_ex.c ****   */
 192:Drivers/STM32F4xx_HAL_Driver/Src/stm32f4xx_hal_i2s_ex.c **** /**
 193:Drivers/STM32F4xx_HAL_Driver/Src/stm32f4xx_hal_i2s_ex.c ****   * @brief  Full-Duplex Transmit/Receive data in blocking mode.
 194:Drivers/STM32F4xx_HAL_Driver/Src/stm32f4xx_hal_i2s_ex.c ****   * @param  hi2s pointer to a I2S_HandleTypeDef structure that contains
 195:Drivers/STM32F4xx_HAL_Driver/Src/stm32f4xx_hal_i2s_ex.c ****   *         the configuration information for I2S module
 196:Drivers/STM32F4xx_HAL_Driver/Src/stm32f4xx_hal_i2s_ex.c ****   * @param  pTxData a 16-bit pointer to the Transmit data buffer.
 197:Drivers/STM32F4xx_HAL_Driver/Src/stm32f4xx_hal_i2s_ex.c ****   * @param  pRxData a 16-bit pointer to the Receive data buffer.
 198:Drivers/STM32F4xx_HAL_Driver/Src/stm32f4xx_hal_i2s_ex.c ****   * @param  Size number of data sample to be sent:
 199:Drivers/STM32F4xx_HAL_Driver/Src/stm32f4xx_hal_i2s_ex.c ****   * @note   When a 16-bit data frame or a 16-bit data frame extended is selected during the I2S
 200:Drivers/STM32F4xx_HAL_Driver/Src/stm32f4xx_hal_i2s_ex.c ****   *         configuration phase, the Size parameter means the number of 16-bit data length
 201:Drivers/STM32F4xx_HAL_Driver/Src/stm32f4xx_hal_i2s_ex.c ****   *         in the transaction and when a 24-bit data frame or a 32-bit data frame is selected
ARM GAS  /var/folders/sd/sw6_rvdd1xd6sxxq8gkv_lph0000gn/T//cc7sexlg.s 			page 5


 202:Drivers/STM32F4xx_HAL_Driver/Src/stm32f4xx_hal_i2s_ex.c ****   *         the Size parameter means the number of 16-bit data length.
 203:Drivers/STM32F4xx_HAL_Driver/Src/stm32f4xx_hal_i2s_ex.c ****   * @param  Timeout Timeout duration
 204:Drivers/STM32F4xx_HAL_Driver/Src/stm32f4xx_hal_i2s_ex.c ****   * @note   The I2S is kept enabled at the end of transaction to avoid the clock de-synchronization
 205:Drivers/STM32F4xx_HAL_Driver/Src/stm32f4xx_hal_i2s_ex.c ****   *         between Master and Slave(example: audio streaming).
 206:Drivers/STM32F4xx_HAL_Driver/Src/stm32f4xx_hal_i2s_ex.c ****   * @retval HAL status
 207:Drivers/STM32F4xx_HAL_Driver/Src/stm32f4xx_hal_i2s_ex.c ****   */
 208:Drivers/STM32F4xx_HAL_Driver/Src/stm32f4xx_hal_i2s_ex.c **** HAL_StatusTypeDef HAL_I2SEx_TransmitReceive(I2S_HandleTypeDef *hi2s,
 209:Drivers/STM32F4xx_HAL_Driver/Src/stm32f4xx_hal_i2s_ex.c ****                                             uint16_t *pTxData,
 210:Drivers/STM32F4xx_HAL_Driver/Src/stm32f4xx_hal_i2s_ex.c ****                                             uint16_t *pRxData,
 211:Drivers/STM32F4xx_HAL_Driver/Src/stm32f4xx_hal_i2s_ex.c ****                                             uint16_t Size,
 212:Drivers/STM32F4xx_HAL_Driver/Src/stm32f4xx_hal_i2s_ex.c ****                                             uint32_t Timeout)
 213:Drivers/STM32F4xx_HAL_Driver/Src/stm32f4xx_hal_i2s_ex.c **** {
 214:Drivers/STM32F4xx_HAL_Driver/Src/stm32f4xx_hal_i2s_ex.c ****   uint32_t tmp1 = 0U;
 215:Drivers/STM32F4xx_HAL_Driver/Src/stm32f4xx_hal_i2s_ex.c ****   HAL_StatusTypeDef errorcode = HAL_OK;
 216:Drivers/STM32F4xx_HAL_Driver/Src/stm32f4xx_hal_i2s_ex.c **** 
 217:Drivers/STM32F4xx_HAL_Driver/Src/stm32f4xx_hal_i2s_ex.c ****   if (hi2s->State != HAL_I2S_STATE_READY)
 218:Drivers/STM32F4xx_HAL_Driver/Src/stm32f4xx_hal_i2s_ex.c ****   {
 219:Drivers/STM32F4xx_HAL_Driver/Src/stm32f4xx_hal_i2s_ex.c ****     errorcode = HAL_BUSY;
 220:Drivers/STM32F4xx_HAL_Driver/Src/stm32f4xx_hal_i2s_ex.c ****     goto error;
 221:Drivers/STM32F4xx_HAL_Driver/Src/stm32f4xx_hal_i2s_ex.c ****   }
 222:Drivers/STM32F4xx_HAL_Driver/Src/stm32f4xx_hal_i2s_ex.c **** 
 223:Drivers/STM32F4xx_HAL_Driver/Src/stm32f4xx_hal_i2s_ex.c ****   if ((pTxData == NULL) || (pRxData == NULL) || (Size == 0U))
 224:Drivers/STM32F4xx_HAL_Driver/Src/stm32f4xx_hal_i2s_ex.c ****   {
 225:Drivers/STM32F4xx_HAL_Driver/Src/stm32f4xx_hal_i2s_ex.c ****     return  HAL_ERROR;
 226:Drivers/STM32F4xx_HAL_Driver/Src/stm32f4xx_hal_i2s_ex.c ****   }
 227:Drivers/STM32F4xx_HAL_Driver/Src/stm32f4xx_hal_i2s_ex.c **** 
 228:Drivers/STM32F4xx_HAL_Driver/Src/stm32f4xx_hal_i2s_ex.c ****   /* Process Locked */
 229:Drivers/STM32F4xx_HAL_Driver/Src/stm32f4xx_hal_i2s_ex.c ****   __HAL_LOCK(hi2s);
 230:Drivers/STM32F4xx_HAL_Driver/Src/stm32f4xx_hal_i2s_ex.c **** 
 231:Drivers/STM32F4xx_HAL_Driver/Src/stm32f4xx_hal_i2s_ex.c ****   tmp1 = hi2s->Instance->I2SCFGR & (SPI_I2SCFGR_DATLEN | SPI_I2SCFGR_CHLEN);
 232:Drivers/STM32F4xx_HAL_Driver/Src/stm32f4xx_hal_i2s_ex.c ****   /* Check the Data format: When a 16-bit data frame or a 16-bit data frame extended
 233:Drivers/STM32F4xx_HAL_Driver/Src/stm32f4xx_hal_i2s_ex.c ****      is selected during the I2S configuration phase, the Size parameter means the number
 234:Drivers/STM32F4xx_HAL_Driver/Src/stm32f4xx_hal_i2s_ex.c ****      of 16-bit data length in the transaction and when a 24-bit data frame or a 32-bit data
 235:Drivers/STM32F4xx_HAL_Driver/Src/stm32f4xx_hal_i2s_ex.c ****      frame is selected the Size parameter means the number of 16-bit data length. */
 236:Drivers/STM32F4xx_HAL_Driver/Src/stm32f4xx_hal_i2s_ex.c ****   if ((tmp1 == I2S_DATAFORMAT_24B) || (tmp1 == I2S_DATAFORMAT_32B))
 237:Drivers/STM32F4xx_HAL_Driver/Src/stm32f4xx_hal_i2s_ex.c ****   {
 238:Drivers/STM32F4xx_HAL_Driver/Src/stm32f4xx_hal_i2s_ex.c ****     hi2s->TxXferSize  = (Size << 1U);
 239:Drivers/STM32F4xx_HAL_Driver/Src/stm32f4xx_hal_i2s_ex.c ****     hi2s->TxXferCount = (Size << 1U);
 240:Drivers/STM32F4xx_HAL_Driver/Src/stm32f4xx_hal_i2s_ex.c ****     hi2s->RxXferSize  = (Size << 1U);
 241:Drivers/STM32F4xx_HAL_Driver/Src/stm32f4xx_hal_i2s_ex.c ****     hi2s->RxXferCount = (Size << 1U);
 242:Drivers/STM32F4xx_HAL_Driver/Src/stm32f4xx_hal_i2s_ex.c ****   }
 243:Drivers/STM32F4xx_HAL_Driver/Src/stm32f4xx_hal_i2s_ex.c ****   else
 244:Drivers/STM32F4xx_HAL_Driver/Src/stm32f4xx_hal_i2s_ex.c ****   {
 245:Drivers/STM32F4xx_HAL_Driver/Src/stm32f4xx_hal_i2s_ex.c ****     hi2s->TxXferSize  = Size;
 246:Drivers/STM32F4xx_HAL_Driver/Src/stm32f4xx_hal_i2s_ex.c ****     hi2s->TxXferCount = Size;
 247:Drivers/STM32F4xx_HAL_Driver/Src/stm32f4xx_hal_i2s_ex.c ****     hi2s->RxXferSize  = Size;
 248:Drivers/STM32F4xx_HAL_Driver/Src/stm32f4xx_hal_i2s_ex.c ****     hi2s->RxXferCount = Size;
 249:Drivers/STM32F4xx_HAL_Driver/Src/stm32f4xx_hal_i2s_ex.c ****   }
 250:Drivers/STM32F4xx_HAL_Driver/Src/stm32f4xx_hal_i2s_ex.c **** 
 251:Drivers/STM32F4xx_HAL_Driver/Src/stm32f4xx_hal_i2s_ex.c ****   /* Set state and reset error code */
 252:Drivers/STM32F4xx_HAL_Driver/Src/stm32f4xx_hal_i2s_ex.c ****   hi2s->ErrorCode = HAL_I2S_ERROR_NONE;
 253:Drivers/STM32F4xx_HAL_Driver/Src/stm32f4xx_hal_i2s_ex.c ****   hi2s->State = HAL_I2S_STATE_BUSY_TX_RX;
 254:Drivers/STM32F4xx_HAL_Driver/Src/stm32f4xx_hal_i2s_ex.c **** 
 255:Drivers/STM32F4xx_HAL_Driver/Src/stm32f4xx_hal_i2s_ex.c ****   tmp1 = hi2s->Instance->I2SCFGR & SPI_I2SCFGR_I2SCFG;
 256:Drivers/STM32F4xx_HAL_Driver/Src/stm32f4xx_hal_i2s_ex.c ****   /* Check if the I2S_MODE_MASTER_TX or I2S_MODE_SLAVE_TX Mode is selected */
 257:Drivers/STM32F4xx_HAL_Driver/Src/stm32f4xx_hal_i2s_ex.c ****   if ((tmp1 == I2S_MODE_MASTER_TX) || (tmp1 == I2S_MODE_SLAVE_TX))
 258:Drivers/STM32F4xx_HAL_Driver/Src/stm32f4xx_hal_i2s_ex.c ****   {
ARM GAS  /var/folders/sd/sw6_rvdd1xd6sxxq8gkv_lph0000gn/T//cc7sexlg.s 			page 6


 259:Drivers/STM32F4xx_HAL_Driver/Src/stm32f4xx_hal_i2s_ex.c ****     /* Prepare the First Data before enabling the I2S */
 260:Drivers/STM32F4xx_HAL_Driver/Src/stm32f4xx_hal_i2s_ex.c ****     hi2s->Instance->DR = (*pTxData++);
 261:Drivers/STM32F4xx_HAL_Driver/Src/stm32f4xx_hal_i2s_ex.c ****     hi2s->TxXferCount--;
 262:Drivers/STM32F4xx_HAL_Driver/Src/stm32f4xx_hal_i2s_ex.c **** 
 263:Drivers/STM32F4xx_HAL_Driver/Src/stm32f4xx_hal_i2s_ex.c ****     /* Enable I2Sext(receiver) before enabling I2Sx peripheral */
 264:Drivers/STM32F4xx_HAL_Driver/Src/stm32f4xx_hal_i2s_ex.c ****     __HAL_I2SEXT_ENABLE(hi2s);
 265:Drivers/STM32F4xx_HAL_Driver/Src/stm32f4xx_hal_i2s_ex.c **** 
 266:Drivers/STM32F4xx_HAL_Driver/Src/stm32f4xx_hal_i2s_ex.c ****     /* Enable I2Sx peripheral */
 267:Drivers/STM32F4xx_HAL_Driver/Src/stm32f4xx_hal_i2s_ex.c ****     __HAL_I2S_ENABLE(hi2s);
 268:Drivers/STM32F4xx_HAL_Driver/Src/stm32f4xx_hal_i2s_ex.c **** 
 269:Drivers/STM32F4xx_HAL_Driver/Src/stm32f4xx_hal_i2s_ex.c ****     /* Check if Master Receiver mode is selected */
 270:Drivers/STM32F4xx_HAL_Driver/Src/stm32f4xx_hal_i2s_ex.c ****     if ((hi2s->Instance->I2SCFGR & SPI_I2SCFGR_I2SCFG) == I2S_MODE_MASTER_TX)
 271:Drivers/STM32F4xx_HAL_Driver/Src/stm32f4xx_hal_i2s_ex.c ****     {
 272:Drivers/STM32F4xx_HAL_Driver/Src/stm32f4xx_hal_i2s_ex.c ****       /* Clear the Overrun Flag by a read operation on the SPI_DR register followed by a read
 273:Drivers/STM32F4xx_HAL_Driver/Src/stm32f4xx_hal_i2s_ex.c ****       access to the SPI_SR register. */
 274:Drivers/STM32F4xx_HAL_Driver/Src/stm32f4xx_hal_i2s_ex.c ****       __HAL_I2SEXT_CLEAR_OVRFLAG(hi2s);
 275:Drivers/STM32F4xx_HAL_Driver/Src/stm32f4xx_hal_i2s_ex.c ****     }
 276:Drivers/STM32F4xx_HAL_Driver/Src/stm32f4xx_hal_i2s_ex.c **** 
 277:Drivers/STM32F4xx_HAL_Driver/Src/stm32f4xx_hal_i2s_ex.c ****     while ((hi2s->RxXferCount > 0U) || (hi2s->TxXferCount > 0U))
 278:Drivers/STM32F4xx_HAL_Driver/Src/stm32f4xx_hal_i2s_ex.c ****     {
 279:Drivers/STM32F4xx_HAL_Driver/Src/stm32f4xx_hal_i2s_ex.c ****       if (hi2s->TxXferCount > 0U)
 280:Drivers/STM32F4xx_HAL_Driver/Src/stm32f4xx_hal_i2s_ex.c ****       {
 281:Drivers/STM32F4xx_HAL_Driver/Src/stm32f4xx_hal_i2s_ex.c ****         /* Wait until TXE flag is set */
 282:Drivers/STM32F4xx_HAL_Driver/Src/stm32f4xx_hal_i2s_ex.c ****         if (I2SEx_FullDuplexWaitFlagStateUntilTimeout(hi2s, I2S_FLAG_TXE, SET, Timeout, I2S_USE_I2S
 283:Drivers/STM32F4xx_HAL_Driver/Src/stm32f4xx_hal_i2s_ex.c ****         {
 284:Drivers/STM32F4xx_HAL_Driver/Src/stm32f4xx_hal_i2s_ex.c ****           /* Set the error code */
 285:Drivers/STM32F4xx_HAL_Driver/Src/stm32f4xx_hal_i2s_ex.c ****           SET_BIT(hi2s->ErrorCode, HAL_I2S_ERROR_TIMEOUT);
 286:Drivers/STM32F4xx_HAL_Driver/Src/stm32f4xx_hal_i2s_ex.c ****           errorcode = HAL_ERROR;
 287:Drivers/STM32F4xx_HAL_Driver/Src/stm32f4xx_hal_i2s_ex.c ****           goto error;
 288:Drivers/STM32F4xx_HAL_Driver/Src/stm32f4xx_hal_i2s_ex.c ****         }
 289:Drivers/STM32F4xx_HAL_Driver/Src/stm32f4xx_hal_i2s_ex.c ****         /* Write Data on DR register */
 290:Drivers/STM32F4xx_HAL_Driver/Src/stm32f4xx_hal_i2s_ex.c ****         hi2s->Instance->DR = (*pTxData++);
 291:Drivers/STM32F4xx_HAL_Driver/Src/stm32f4xx_hal_i2s_ex.c ****         hi2s->TxXferCount--;
 292:Drivers/STM32F4xx_HAL_Driver/Src/stm32f4xx_hal_i2s_ex.c **** 
 293:Drivers/STM32F4xx_HAL_Driver/Src/stm32f4xx_hal_i2s_ex.c ****         /* Check if an underrun occurs */
 294:Drivers/STM32F4xx_HAL_Driver/Src/stm32f4xx_hal_i2s_ex.c ****         if ((__HAL_I2S_GET_FLAG(hi2s, I2S_FLAG_UDR) == SET) && (tmp1 == I2S_MODE_SLAVE_TX))
 295:Drivers/STM32F4xx_HAL_Driver/Src/stm32f4xx_hal_i2s_ex.c ****         {
 296:Drivers/STM32F4xx_HAL_Driver/Src/stm32f4xx_hal_i2s_ex.c ****           /* Clear Underrun flag */
 297:Drivers/STM32F4xx_HAL_Driver/Src/stm32f4xx_hal_i2s_ex.c ****           __HAL_I2S_CLEAR_UDRFLAG(hi2s);
 298:Drivers/STM32F4xx_HAL_Driver/Src/stm32f4xx_hal_i2s_ex.c **** 
 299:Drivers/STM32F4xx_HAL_Driver/Src/stm32f4xx_hal_i2s_ex.c ****           /* Set the error code */
 300:Drivers/STM32F4xx_HAL_Driver/Src/stm32f4xx_hal_i2s_ex.c ****           SET_BIT(hi2s->ErrorCode, HAL_I2S_ERROR_UDR);
 301:Drivers/STM32F4xx_HAL_Driver/Src/stm32f4xx_hal_i2s_ex.c ****         }
 302:Drivers/STM32F4xx_HAL_Driver/Src/stm32f4xx_hal_i2s_ex.c ****       }
 303:Drivers/STM32F4xx_HAL_Driver/Src/stm32f4xx_hal_i2s_ex.c ****       if (hi2s->RxXferCount > 0U)
 304:Drivers/STM32F4xx_HAL_Driver/Src/stm32f4xx_hal_i2s_ex.c ****       {
 305:Drivers/STM32F4xx_HAL_Driver/Src/stm32f4xx_hal_i2s_ex.c ****         /* Wait until RXNE flag is set */
 306:Drivers/STM32F4xx_HAL_Driver/Src/stm32f4xx_hal_i2s_ex.c ****         if (I2SEx_FullDuplexWaitFlagStateUntilTimeout(hi2s, I2S_FLAG_RXNE, SET, Timeout, I2S_USE_I2
 307:Drivers/STM32F4xx_HAL_Driver/Src/stm32f4xx_hal_i2s_ex.c ****         {
 308:Drivers/STM32F4xx_HAL_Driver/Src/stm32f4xx_hal_i2s_ex.c ****           /* Set the error code */
 309:Drivers/STM32F4xx_HAL_Driver/Src/stm32f4xx_hal_i2s_ex.c ****           SET_BIT(hi2s->ErrorCode, HAL_I2S_ERROR_TIMEOUT);
 310:Drivers/STM32F4xx_HAL_Driver/Src/stm32f4xx_hal_i2s_ex.c ****           errorcode = HAL_ERROR;
 311:Drivers/STM32F4xx_HAL_Driver/Src/stm32f4xx_hal_i2s_ex.c ****           goto error;
 312:Drivers/STM32F4xx_HAL_Driver/Src/stm32f4xx_hal_i2s_ex.c ****         }
 313:Drivers/STM32F4xx_HAL_Driver/Src/stm32f4xx_hal_i2s_ex.c ****         /* Read Data from DR register */
 314:Drivers/STM32F4xx_HAL_Driver/Src/stm32f4xx_hal_i2s_ex.c ****         (*pRxData++) = I2SxEXT(hi2s->Instance)->DR;
 315:Drivers/STM32F4xx_HAL_Driver/Src/stm32f4xx_hal_i2s_ex.c ****         hi2s->RxXferCount--;
ARM GAS  /var/folders/sd/sw6_rvdd1xd6sxxq8gkv_lph0000gn/T//cc7sexlg.s 			page 7


 316:Drivers/STM32F4xx_HAL_Driver/Src/stm32f4xx_hal_i2s_ex.c **** 
 317:Drivers/STM32F4xx_HAL_Driver/Src/stm32f4xx_hal_i2s_ex.c ****         /* Check if an overrun occurs */
 318:Drivers/STM32F4xx_HAL_Driver/Src/stm32f4xx_hal_i2s_ex.c ****         if (__HAL_I2SEXT_GET_FLAG(hi2s, I2S_FLAG_OVR) == SET)
 319:Drivers/STM32F4xx_HAL_Driver/Src/stm32f4xx_hal_i2s_ex.c ****         {
 320:Drivers/STM32F4xx_HAL_Driver/Src/stm32f4xx_hal_i2s_ex.c ****           /* Clear Overrun flag */
 321:Drivers/STM32F4xx_HAL_Driver/Src/stm32f4xx_hal_i2s_ex.c ****           __HAL_I2S_CLEAR_OVRFLAG(hi2s);
 322:Drivers/STM32F4xx_HAL_Driver/Src/stm32f4xx_hal_i2s_ex.c **** 
 323:Drivers/STM32F4xx_HAL_Driver/Src/stm32f4xx_hal_i2s_ex.c ****           /* Set the error code */
 324:Drivers/STM32F4xx_HAL_Driver/Src/stm32f4xx_hal_i2s_ex.c ****           SET_BIT(hi2s->ErrorCode, HAL_I2S_ERROR_OVR);
 325:Drivers/STM32F4xx_HAL_Driver/Src/stm32f4xx_hal_i2s_ex.c ****         }
 326:Drivers/STM32F4xx_HAL_Driver/Src/stm32f4xx_hal_i2s_ex.c ****       }
 327:Drivers/STM32F4xx_HAL_Driver/Src/stm32f4xx_hal_i2s_ex.c ****     }
 328:Drivers/STM32F4xx_HAL_Driver/Src/stm32f4xx_hal_i2s_ex.c ****   }
 329:Drivers/STM32F4xx_HAL_Driver/Src/stm32f4xx_hal_i2s_ex.c ****   /* The I2S_MODE_MASTER_RX or I2S_MODE_SLAVE_RX Mode is selected */
 330:Drivers/STM32F4xx_HAL_Driver/Src/stm32f4xx_hal_i2s_ex.c ****   else
 331:Drivers/STM32F4xx_HAL_Driver/Src/stm32f4xx_hal_i2s_ex.c ****   {
 332:Drivers/STM32F4xx_HAL_Driver/Src/stm32f4xx_hal_i2s_ex.c ****     /* Prepare the First Data before enabling the I2S */
 333:Drivers/STM32F4xx_HAL_Driver/Src/stm32f4xx_hal_i2s_ex.c ****     I2SxEXT(hi2s->Instance)->DR = (*pTxData++);
 334:Drivers/STM32F4xx_HAL_Driver/Src/stm32f4xx_hal_i2s_ex.c ****     hi2s->TxXferCount--;
 335:Drivers/STM32F4xx_HAL_Driver/Src/stm32f4xx_hal_i2s_ex.c **** 
 336:Drivers/STM32F4xx_HAL_Driver/Src/stm32f4xx_hal_i2s_ex.c ****     /* Enable I2Sext(transmitter) after enabling I2Sx peripheral */
 337:Drivers/STM32F4xx_HAL_Driver/Src/stm32f4xx_hal_i2s_ex.c ****     __HAL_I2SEXT_ENABLE(hi2s);
 338:Drivers/STM32F4xx_HAL_Driver/Src/stm32f4xx_hal_i2s_ex.c **** 
 339:Drivers/STM32F4xx_HAL_Driver/Src/stm32f4xx_hal_i2s_ex.c ****     /* Enable I2S peripheral before the I2Sext*/
 340:Drivers/STM32F4xx_HAL_Driver/Src/stm32f4xx_hal_i2s_ex.c ****     __HAL_I2S_ENABLE(hi2s);
 341:Drivers/STM32F4xx_HAL_Driver/Src/stm32f4xx_hal_i2s_ex.c **** 
 342:Drivers/STM32F4xx_HAL_Driver/Src/stm32f4xx_hal_i2s_ex.c ****     /* Check if Master Receiver mode is selected */
 343:Drivers/STM32F4xx_HAL_Driver/Src/stm32f4xx_hal_i2s_ex.c ****     if ((hi2s->Instance->I2SCFGR & SPI_I2SCFGR_I2SCFG) == I2S_MODE_MASTER_RX)
 344:Drivers/STM32F4xx_HAL_Driver/Src/stm32f4xx_hal_i2s_ex.c ****     {
 345:Drivers/STM32F4xx_HAL_Driver/Src/stm32f4xx_hal_i2s_ex.c ****       /* Clear the Overrun Flag by a read operation on the SPI_DR register followed by a read
 346:Drivers/STM32F4xx_HAL_Driver/Src/stm32f4xx_hal_i2s_ex.c ****       access to the SPI_SR register. */
 347:Drivers/STM32F4xx_HAL_Driver/Src/stm32f4xx_hal_i2s_ex.c ****       __HAL_I2S_CLEAR_OVRFLAG(hi2s);
 348:Drivers/STM32F4xx_HAL_Driver/Src/stm32f4xx_hal_i2s_ex.c ****     }
 349:Drivers/STM32F4xx_HAL_Driver/Src/stm32f4xx_hal_i2s_ex.c **** 
 350:Drivers/STM32F4xx_HAL_Driver/Src/stm32f4xx_hal_i2s_ex.c ****     while ((hi2s->RxXferCount > 0U) || (hi2s->TxXferCount > 0U))
 351:Drivers/STM32F4xx_HAL_Driver/Src/stm32f4xx_hal_i2s_ex.c ****     {
 352:Drivers/STM32F4xx_HAL_Driver/Src/stm32f4xx_hal_i2s_ex.c ****       if (hi2s->TxXferCount > 0U)
 353:Drivers/STM32F4xx_HAL_Driver/Src/stm32f4xx_hal_i2s_ex.c ****       {
 354:Drivers/STM32F4xx_HAL_Driver/Src/stm32f4xx_hal_i2s_ex.c ****         /* Wait until TXE flag is set */
 355:Drivers/STM32F4xx_HAL_Driver/Src/stm32f4xx_hal_i2s_ex.c ****         if (I2SEx_FullDuplexWaitFlagStateUntilTimeout(hi2s, I2S_FLAG_TXE, SET, Timeout, I2S_USE_I2S
 356:Drivers/STM32F4xx_HAL_Driver/Src/stm32f4xx_hal_i2s_ex.c ****         {
 357:Drivers/STM32F4xx_HAL_Driver/Src/stm32f4xx_hal_i2s_ex.c ****           /* Set the error code */
 358:Drivers/STM32F4xx_HAL_Driver/Src/stm32f4xx_hal_i2s_ex.c ****           SET_BIT(hi2s->ErrorCode, HAL_I2S_ERROR_TIMEOUT);
 359:Drivers/STM32F4xx_HAL_Driver/Src/stm32f4xx_hal_i2s_ex.c ****           errorcode = HAL_ERROR;
 360:Drivers/STM32F4xx_HAL_Driver/Src/stm32f4xx_hal_i2s_ex.c ****           goto error;
 361:Drivers/STM32F4xx_HAL_Driver/Src/stm32f4xx_hal_i2s_ex.c ****         }
 362:Drivers/STM32F4xx_HAL_Driver/Src/stm32f4xx_hal_i2s_ex.c ****         /* Write Data on DR register */
 363:Drivers/STM32F4xx_HAL_Driver/Src/stm32f4xx_hal_i2s_ex.c ****         I2SxEXT(hi2s->Instance)->DR = (*pTxData++);
 364:Drivers/STM32F4xx_HAL_Driver/Src/stm32f4xx_hal_i2s_ex.c ****         hi2s->TxXferCount--;
 365:Drivers/STM32F4xx_HAL_Driver/Src/stm32f4xx_hal_i2s_ex.c **** 
 366:Drivers/STM32F4xx_HAL_Driver/Src/stm32f4xx_hal_i2s_ex.c ****         /* Check if an underrun occurs */
 367:Drivers/STM32F4xx_HAL_Driver/Src/stm32f4xx_hal_i2s_ex.c ****         if ((__HAL_I2SEXT_GET_FLAG(hi2s, I2S_FLAG_UDR) == SET) && (tmp1 == I2S_MODE_SLAVE_RX))
 368:Drivers/STM32F4xx_HAL_Driver/Src/stm32f4xx_hal_i2s_ex.c ****         {
 369:Drivers/STM32F4xx_HAL_Driver/Src/stm32f4xx_hal_i2s_ex.c ****           /* Clear Underrun flag */
 370:Drivers/STM32F4xx_HAL_Driver/Src/stm32f4xx_hal_i2s_ex.c ****           __HAL_I2S_CLEAR_UDRFLAG(hi2s);
 371:Drivers/STM32F4xx_HAL_Driver/Src/stm32f4xx_hal_i2s_ex.c **** 
 372:Drivers/STM32F4xx_HAL_Driver/Src/stm32f4xx_hal_i2s_ex.c ****           /* Set the error code */
ARM GAS  /var/folders/sd/sw6_rvdd1xd6sxxq8gkv_lph0000gn/T//cc7sexlg.s 			page 8


 373:Drivers/STM32F4xx_HAL_Driver/Src/stm32f4xx_hal_i2s_ex.c ****           SET_BIT(hi2s->ErrorCode, HAL_I2S_ERROR_UDR);
 374:Drivers/STM32F4xx_HAL_Driver/Src/stm32f4xx_hal_i2s_ex.c ****         }
 375:Drivers/STM32F4xx_HAL_Driver/Src/stm32f4xx_hal_i2s_ex.c ****       }
 376:Drivers/STM32F4xx_HAL_Driver/Src/stm32f4xx_hal_i2s_ex.c ****       if (hi2s->RxXferCount > 0U)
 377:Drivers/STM32F4xx_HAL_Driver/Src/stm32f4xx_hal_i2s_ex.c ****       {
 378:Drivers/STM32F4xx_HAL_Driver/Src/stm32f4xx_hal_i2s_ex.c ****         /* Wait until RXNE flag is set */
 379:Drivers/STM32F4xx_HAL_Driver/Src/stm32f4xx_hal_i2s_ex.c ****         if (I2SEx_FullDuplexWaitFlagStateUntilTimeout(hi2s, I2S_FLAG_RXNE, SET, Timeout, I2S_USE_I2
 380:Drivers/STM32F4xx_HAL_Driver/Src/stm32f4xx_hal_i2s_ex.c ****         {
 381:Drivers/STM32F4xx_HAL_Driver/Src/stm32f4xx_hal_i2s_ex.c ****           /* Set the error code */
 382:Drivers/STM32F4xx_HAL_Driver/Src/stm32f4xx_hal_i2s_ex.c ****           SET_BIT(hi2s->ErrorCode, HAL_I2S_ERROR_TIMEOUT);
 383:Drivers/STM32F4xx_HAL_Driver/Src/stm32f4xx_hal_i2s_ex.c ****           errorcode = HAL_ERROR;
 384:Drivers/STM32F4xx_HAL_Driver/Src/stm32f4xx_hal_i2s_ex.c ****           goto error;
 385:Drivers/STM32F4xx_HAL_Driver/Src/stm32f4xx_hal_i2s_ex.c ****         }
 386:Drivers/STM32F4xx_HAL_Driver/Src/stm32f4xx_hal_i2s_ex.c ****         /* Read Data from DR register */
 387:Drivers/STM32F4xx_HAL_Driver/Src/stm32f4xx_hal_i2s_ex.c ****         (*pRxData++) = hi2s->Instance->DR;
 388:Drivers/STM32F4xx_HAL_Driver/Src/stm32f4xx_hal_i2s_ex.c ****         hi2s->RxXferCount--;
 389:Drivers/STM32F4xx_HAL_Driver/Src/stm32f4xx_hal_i2s_ex.c **** 
 390:Drivers/STM32F4xx_HAL_Driver/Src/stm32f4xx_hal_i2s_ex.c ****         /* Check if an overrun occurs */
 391:Drivers/STM32F4xx_HAL_Driver/Src/stm32f4xx_hal_i2s_ex.c ****         if (__HAL_I2S_GET_FLAG(hi2s, I2S_FLAG_OVR) == SET)
 392:Drivers/STM32F4xx_HAL_Driver/Src/stm32f4xx_hal_i2s_ex.c ****         {
 393:Drivers/STM32F4xx_HAL_Driver/Src/stm32f4xx_hal_i2s_ex.c ****           /* Clear Overrun flag */
 394:Drivers/STM32F4xx_HAL_Driver/Src/stm32f4xx_hal_i2s_ex.c ****           __HAL_I2S_CLEAR_OVRFLAG(hi2s);
 395:Drivers/STM32F4xx_HAL_Driver/Src/stm32f4xx_hal_i2s_ex.c **** 
 396:Drivers/STM32F4xx_HAL_Driver/Src/stm32f4xx_hal_i2s_ex.c ****           /* Set the error code */
 397:Drivers/STM32F4xx_HAL_Driver/Src/stm32f4xx_hal_i2s_ex.c ****           SET_BIT(hi2s->ErrorCode, HAL_I2S_ERROR_OVR);
 398:Drivers/STM32F4xx_HAL_Driver/Src/stm32f4xx_hal_i2s_ex.c ****         }
 399:Drivers/STM32F4xx_HAL_Driver/Src/stm32f4xx_hal_i2s_ex.c ****       }
 400:Drivers/STM32F4xx_HAL_Driver/Src/stm32f4xx_hal_i2s_ex.c ****     }
 401:Drivers/STM32F4xx_HAL_Driver/Src/stm32f4xx_hal_i2s_ex.c ****   }
 402:Drivers/STM32F4xx_HAL_Driver/Src/stm32f4xx_hal_i2s_ex.c **** 
 403:Drivers/STM32F4xx_HAL_Driver/Src/stm32f4xx_hal_i2s_ex.c ****   if (hi2s->ErrorCode != HAL_I2S_ERROR_NONE)
 404:Drivers/STM32F4xx_HAL_Driver/Src/stm32f4xx_hal_i2s_ex.c ****   {
 405:Drivers/STM32F4xx_HAL_Driver/Src/stm32f4xx_hal_i2s_ex.c ****     errorcode = HAL_ERROR;
 406:Drivers/STM32F4xx_HAL_Driver/Src/stm32f4xx_hal_i2s_ex.c ****   }
 407:Drivers/STM32F4xx_HAL_Driver/Src/stm32f4xx_hal_i2s_ex.c **** 
 408:Drivers/STM32F4xx_HAL_Driver/Src/stm32f4xx_hal_i2s_ex.c **** error :
 409:Drivers/STM32F4xx_HAL_Driver/Src/stm32f4xx_hal_i2s_ex.c ****   hi2s->State = HAL_I2S_STATE_READY;
 410:Drivers/STM32F4xx_HAL_Driver/Src/stm32f4xx_hal_i2s_ex.c ****   __HAL_UNLOCK(hi2s);
 411:Drivers/STM32F4xx_HAL_Driver/Src/stm32f4xx_hal_i2s_ex.c ****   return errorcode;
 412:Drivers/STM32F4xx_HAL_Driver/Src/stm32f4xx_hal_i2s_ex.c **** }
 413:Drivers/STM32F4xx_HAL_Driver/Src/stm32f4xx_hal_i2s_ex.c **** 
 414:Drivers/STM32F4xx_HAL_Driver/Src/stm32f4xx_hal_i2s_ex.c **** /**
 415:Drivers/STM32F4xx_HAL_Driver/Src/stm32f4xx_hal_i2s_ex.c ****   * @brief  Full-Duplex Transmit/Receive data in non-blocking mode using Interrupt
 416:Drivers/STM32F4xx_HAL_Driver/Src/stm32f4xx_hal_i2s_ex.c ****   * @param  hi2s pointer to a I2S_HandleTypeDef structure that contains
 417:Drivers/STM32F4xx_HAL_Driver/Src/stm32f4xx_hal_i2s_ex.c ****   *         the configuration information for I2S module
 418:Drivers/STM32F4xx_HAL_Driver/Src/stm32f4xx_hal_i2s_ex.c ****   * @param  pTxData a 16-bit pointer to the Transmit data buffer.
 419:Drivers/STM32F4xx_HAL_Driver/Src/stm32f4xx_hal_i2s_ex.c ****   * @param  pRxData a 16-bit pointer to the Receive data buffer.
 420:Drivers/STM32F4xx_HAL_Driver/Src/stm32f4xx_hal_i2s_ex.c ****   * @param  Size number of data sample to be sent:
 421:Drivers/STM32F4xx_HAL_Driver/Src/stm32f4xx_hal_i2s_ex.c ****   * @note   When a 16-bit data frame or a 16-bit data frame extended is selected during the I2S
 422:Drivers/STM32F4xx_HAL_Driver/Src/stm32f4xx_hal_i2s_ex.c ****   *         configuration phase, the Size parameter means the number of 16-bit data length
 423:Drivers/STM32F4xx_HAL_Driver/Src/stm32f4xx_hal_i2s_ex.c ****   *         in the transaction and when a 24-bit data frame or a 32-bit data frame is selected
 424:Drivers/STM32F4xx_HAL_Driver/Src/stm32f4xx_hal_i2s_ex.c ****   *         the Size parameter means the number of 16-bit data length.
 425:Drivers/STM32F4xx_HAL_Driver/Src/stm32f4xx_hal_i2s_ex.c ****   * @note   The I2S is kept enabled at the end of transaction to avoid the clock de-synchronization
 426:Drivers/STM32F4xx_HAL_Driver/Src/stm32f4xx_hal_i2s_ex.c ****   *         between Master and Slave(example: audio streaming).
 427:Drivers/STM32F4xx_HAL_Driver/Src/stm32f4xx_hal_i2s_ex.c ****   * @retval HAL status
 428:Drivers/STM32F4xx_HAL_Driver/Src/stm32f4xx_hal_i2s_ex.c ****   */
 429:Drivers/STM32F4xx_HAL_Driver/Src/stm32f4xx_hal_i2s_ex.c **** HAL_StatusTypeDef HAL_I2SEx_TransmitReceive_IT(I2S_HandleTypeDef *hi2s,
ARM GAS  /var/folders/sd/sw6_rvdd1xd6sxxq8gkv_lph0000gn/T//cc7sexlg.s 			page 9


 430:Drivers/STM32F4xx_HAL_Driver/Src/stm32f4xx_hal_i2s_ex.c ****                                                uint16_t *pTxData,
 431:Drivers/STM32F4xx_HAL_Driver/Src/stm32f4xx_hal_i2s_ex.c ****                                                uint16_t *pRxData,
 432:Drivers/STM32F4xx_HAL_Driver/Src/stm32f4xx_hal_i2s_ex.c ****                                                uint16_t Size)
 433:Drivers/STM32F4xx_HAL_Driver/Src/stm32f4xx_hal_i2s_ex.c **** {
 434:Drivers/STM32F4xx_HAL_Driver/Src/stm32f4xx_hal_i2s_ex.c ****   uint32_t tmp1 = 0U;
 435:Drivers/STM32F4xx_HAL_Driver/Src/stm32f4xx_hal_i2s_ex.c ****   HAL_StatusTypeDef errorcode = HAL_OK;
 436:Drivers/STM32F4xx_HAL_Driver/Src/stm32f4xx_hal_i2s_ex.c **** 
 437:Drivers/STM32F4xx_HAL_Driver/Src/stm32f4xx_hal_i2s_ex.c ****   if (hi2s->State != HAL_I2S_STATE_READY)
 438:Drivers/STM32F4xx_HAL_Driver/Src/stm32f4xx_hal_i2s_ex.c ****   {
 439:Drivers/STM32F4xx_HAL_Driver/Src/stm32f4xx_hal_i2s_ex.c ****     errorcode = HAL_BUSY;
 440:Drivers/STM32F4xx_HAL_Driver/Src/stm32f4xx_hal_i2s_ex.c ****     goto error;
 441:Drivers/STM32F4xx_HAL_Driver/Src/stm32f4xx_hal_i2s_ex.c ****   }
 442:Drivers/STM32F4xx_HAL_Driver/Src/stm32f4xx_hal_i2s_ex.c **** 
 443:Drivers/STM32F4xx_HAL_Driver/Src/stm32f4xx_hal_i2s_ex.c ****   if ((pTxData == NULL) || (pRxData == NULL) || (Size == 0U))
 444:Drivers/STM32F4xx_HAL_Driver/Src/stm32f4xx_hal_i2s_ex.c ****   {
 445:Drivers/STM32F4xx_HAL_Driver/Src/stm32f4xx_hal_i2s_ex.c ****     return  HAL_ERROR;
 446:Drivers/STM32F4xx_HAL_Driver/Src/stm32f4xx_hal_i2s_ex.c ****   }
 447:Drivers/STM32F4xx_HAL_Driver/Src/stm32f4xx_hal_i2s_ex.c **** 
 448:Drivers/STM32F4xx_HAL_Driver/Src/stm32f4xx_hal_i2s_ex.c ****   /* Process Locked */
 449:Drivers/STM32F4xx_HAL_Driver/Src/stm32f4xx_hal_i2s_ex.c ****   __HAL_LOCK(hi2s);
 450:Drivers/STM32F4xx_HAL_Driver/Src/stm32f4xx_hal_i2s_ex.c **** 
 451:Drivers/STM32F4xx_HAL_Driver/Src/stm32f4xx_hal_i2s_ex.c ****   hi2s->pTxBuffPtr = pTxData;
 452:Drivers/STM32F4xx_HAL_Driver/Src/stm32f4xx_hal_i2s_ex.c ****   hi2s->pRxBuffPtr = pRxData;
 453:Drivers/STM32F4xx_HAL_Driver/Src/stm32f4xx_hal_i2s_ex.c **** 
 454:Drivers/STM32F4xx_HAL_Driver/Src/stm32f4xx_hal_i2s_ex.c ****   tmp1 = hi2s->Instance->I2SCFGR & (SPI_I2SCFGR_DATLEN | SPI_I2SCFGR_CHLEN);
 455:Drivers/STM32F4xx_HAL_Driver/Src/stm32f4xx_hal_i2s_ex.c ****   /* Check the Data format: When a 16-bit data frame or a 16-bit data frame extended
 456:Drivers/STM32F4xx_HAL_Driver/Src/stm32f4xx_hal_i2s_ex.c ****   is selected during the I2S configuration phase, the Size parameter means the number
 457:Drivers/STM32F4xx_HAL_Driver/Src/stm32f4xx_hal_i2s_ex.c ****   of 16-bit data length in the transaction and when a 24-bit data frame or a 32-bit data
 458:Drivers/STM32F4xx_HAL_Driver/Src/stm32f4xx_hal_i2s_ex.c ****   frame is selected the Size parameter means the number of 16-bit data length. */
 459:Drivers/STM32F4xx_HAL_Driver/Src/stm32f4xx_hal_i2s_ex.c ****   if ((tmp1 == I2S_DATAFORMAT_24B) || (tmp1 == I2S_DATAFORMAT_32B))
 460:Drivers/STM32F4xx_HAL_Driver/Src/stm32f4xx_hal_i2s_ex.c ****   {
 461:Drivers/STM32F4xx_HAL_Driver/Src/stm32f4xx_hal_i2s_ex.c ****     hi2s->TxXferSize  = (Size << 1U);
 462:Drivers/STM32F4xx_HAL_Driver/Src/stm32f4xx_hal_i2s_ex.c ****     hi2s->TxXferCount = (Size << 1U);
 463:Drivers/STM32F4xx_HAL_Driver/Src/stm32f4xx_hal_i2s_ex.c ****     hi2s->RxXferSize  = (Size << 1U);
 464:Drivers/STM32F4xx_HAL_Driver/Src/stm32f4xx_hal_i2s_ex.c ****     hi2s->RxXferCount = (Size << 1U);
 465:Drivers/STM32F4xx_HAL_Driver/Src/stm32f4xx_hal_i2s_ex.c ****   }
 466:Drivers/STM32F4xx_HAL_Driver/Src/stm32f4xx_hal_i2s_ex.c ****   else
 467:Drivers/STM32F4xx_HAL_Driver/Src/stm32f4xx_hal_i2s_ex.c ****   {
 468:Drivers/STM32F4xx_HAL_Driver/Src/stm32f4xx_hal_i2s_ex.c ****     hi2s->TxXferSize  = Size;
 469:Drivers/STM32F4xx_HAL_Driver/Src/stm32f4xx_hal_i2s_ex.c ****     hi2s->TxXferCount = Size;
 470:Drivers/STM32F4xx_HAL_Driver/Src/stm32f4xx_hal_i2s_ex.c ****     hi2s->RxXferSize  = Size;
 471:Drivers/STM32F4xx_HAL_Driver/Src/stm32f4xx_hal_i2s_ex.c ****     hi2s->RxXferCount = Size;
 472:Drivers/STM32F4xx_HAL_Driver/Src/stm32f4xx_hal_i2s_ex.c ****   }
 473:Drivers/STM32F4xx_HAL_Driver/Src/stm32f4xx_hal_i2s_ex.c **** 
 474:Drivers/STM32F4xx_HAL_Driver/Src/stm32f4xx_hal_i2s_ex.c ****   hi2s->ErrorCode = HAL_I2S_ERROR_NONE;
 475:Drivers/STM32F4xx_HAL_Driver/Src/stm32f4xx_hal_i2s_ex.c ****   hi2s->State     = HAL_I2S_STATE_BUSY_TX_RX;
 476:Drivers/STM32F4xx_HAL_Driver/Src/stm32f4xx_hal_i2s_ex.c **** 
 477:Drivers/STM32F4xx_HAL_Driver/Src/stm32f4xx_hal_i2s_ex.c ****   /* Set the function for IT treatment */
 478:Drivers/STM32F4xx_HAL_Driver/Src/stm32f4xx_hal_i2s_ex.c ****   if ((hi2s->Init.Mode == I2S_MODE_MASTER_TX) || (hi2s->Init.Mode == I2S_MODE_SLAVE_TX))
 479:Drivers/STM32F4xx_HAL_Driver/Src/stm32f4xx_hal_i2s_ex.c ****   {
 480:Drivers/STM32F4xx_HAL_Driver/Src/stm32f4xx_hal_i2s_ex.c ****     /* Enable I2Sext RXNE and ERR interrupts */
 481:Drivers/STM32F4xx_HAL_Driver/Src/stm32f4xx_hal_i2s_ex.c ****     __HAL_I2SEXT_ENABLE_IT(hi2s, (I2S_IT_RXNE | I2S_IT_ERR));
 482:Drivers/STM32F4xx_HAL_Driver/Src/stm32f4xx_hal_i2s_ex.c **** 
 483:Drivers/STM32F4xx_HAL_Driver/Src/stm32f4xx_hal_i2s_ex.c ****     /* Enable I2Sx TXE and ERR interrupts */
 484:Drivers/STM32F4xx_HAL_Driver/Src/stm32f4xx_hal_i2s_ex.c ****     __HAL_I2S_ENABLE_IT(hi2s, (I2S_IT_TXE | I2S_IT_ERR));
 485:Drivers/STM32F4xx_HAL_Driver/Src/stm32f4xx_hal_i2s_ex.c **** 
 486:Drivers/STM32F4xx_HAL_Driver/Src/stm32f4xx_hal_i2s_ex.c ****     /* Transmit First data */
ARM GAS  /var/folders/sd/sw6_rvdd1xd6sxxq8gkv_lph0000gn/T//cc7sexlg.s 			page 10


 487:Drivers/STM32F4xx_HAL_Driver/Src/stm32f4xx_hal_i2s_ex.c ****     hi2s->Instance->DR = (*hi2s->pTxBuffPtr++);
 488:Drivers/STM32F4xx_HAL_Driver/Src/stm32f4xx_hal_i2s_ex.c ****     hi2s->TxXferCount--;
 489:Drivers/STM32F4xx_HAL_Driver/Src/stm32f4xx_hal_i2s_ex.c **** 
 490:Drivers/STM32F4xx_HAL_Driver/Src/stm32f4xx_hal_i2s_ex.c ****     if (hi2s->TxXferCount == 0U)
 491:Drivers/STM32F4xx_HAL_Driver/Src/stm32f4xx_hal_i2s_ex.c ****     {
 492:Drivers/STM32F4xx_HAL_Driver/Src/stm32f4xx_hal_i2s_ex.c ****       /* Disable TXE and ERR interrupt */
 493:Drivers/STM32F4xx_HAL_Driver/Src/stm32f4xx_hal_i2s_ex.c ****       __HAL_I2S_DISABLE_IT(hi2s, (I2S_IT_TXE | I2S_IT_ERR));
 494:Drivers/STM32F4xx_HAL_Driver/Src/stm32f4xx_hal_i2s_ex.c ****     }
 495:Drivers/STM32F4xx_HAL_Driver/Src/stm32f4xx_hal_i2s_ex.c ****   }
 496:Drivers/STM32F4xx_HAL_Driver/Src/stm32f4xx_hal_i2s_ex.c ****   else  /* The I2S_MODE_MASTER_RX or I2S_MODE_SLAVE_RX Mode is selected */
 497:Drivers/STM32F4xx_HAL_Driver/Src/stm32f4xx_hal_i2s_ex.c ****   {
 498:Drivers/STM32F4xx_HAL_Driver/Src/stm32f4xx_hal_i2s_ex.c ****     /* Enable I2Sext TXE and ERR interrupts */
 499:Drivers/STM32F4xx_HAL_Driver/Src/stm32f4xx_hal_i2s_ex.c ****     __HAL_I2SEXT_ENABLE_IT(hi2s, (I2S_IT_TXE | I2S_IT_ERR));
 500:Drivers/STM32F4xx_HAL_Driver/Src/stm32f4xx_hal_i2s_ex.c **** 
 501:Drivers/STM32F4xx_HAL_Driver/Src/stm32f4xx_hal_i2s_ex.c ****     /* Enable I2Sext RXNE and ERR interrupts */
 502:Drivers/STM32F4xx_HAL_Driver/Src/stm32f4xx_hal_i2s_ex.c ****     __HAL_I2S_ENABLE_IT(hi2s, (I2S_IT_RXNE | I2S_IT_ERR));
 503:Drivers/STM32F4xx_HAL_Driver/Src/stm32f4xx_hal_i2s_ex.c **** 
 504:Drivers/STM32F4xx_HAL_Driver/Src/stm32f4xx_hal_i2s_ex.c ****     /* Transmit First data */
 505:Drivers/STM32F4xx_HAL_Driver/Src/stm32f4xx_hal_i2s_ex.c ****     I2SxEXT(hi2s->Instance)->DR = (*hi2s->pTxBuffPtr++);
 506:Drivers/STM32F4xx_HAL_Driver/Src/stm32f4xx_hal_i2s_ex.c ****     hi2s->TxXferCount--;
 507:Drivers/STM32F4xx_HAL_Driver/Src/stm32f4xx_hal_i2s_ex.c **** 
 508:Drivers/STM32F4xx_HAL_Driver/Src/stm32f4xx_hal_i2s_ex.c ****     if (hi2s->TxXferCount == 0U)
 509:Drivers/STM32F4xx_HAL_Driver/Src/stm32f4xx_hal_i2s_ex.c ****     {
 510:Drivers/STM32F4xx_HAL_Driver/Src/stm32f4xx_hal_i2s_ex.c ****       /* Disable I2Sext TXE and ERR interrupt */
 511:Drivers/STM32F4xx_HAL_Driver/Src/stm32f4xx_hal_i2s_ex.c ****       __HAL_I2SEXT_DISABLE_IT(hi2s, (I2S_IT_TXE | I2S_IT_ERR));
 512:Drivers/STM32F4xx_HAL_Driver/Src/stm32f4xx_hal_i2s_ex.c ****     }
 513:Drivers/STM32F4xx_HAL_Driver/Src/stm32f4xx_hal_i2s_ex.c ****   }
 514:Drivers/STM32F4xx_HAL_Driver/Src/stm32f4xx_hal_i2s_ex.c **** 
 515:Drivers/STM32F4xx_HAL_Driver/Src/stm32f4xx_hal_i2s_ex.c ****   /* Enable I2Sext peripheral */
 516:Drivers/STM32F4xx_HAL_Driver/Src/stm32f4xx_hal_i2s_ex.c ****   __HAL_I2SEXT_ENABLE(hi2s);
 517:Drivers/STM32F4xx_HAL_Driver/Src/stm32f4xx_hal_i2s_ex.c **** 
 518:Drivers/STM32F4xx_HAL_Driver/Src/stm32f4xx_hal_i2s_ex.c ****   /* Enable I2S peripheral */
 519:Drivers/STM32F4xx_HAL_Driver/Src/stm32f4xx_hal_i2s_ex.c ****   __HAL_I2S_ENABLE(hi2s);
 520:Drivers/STM32F4xx_HAL_Driver/Src/stm32f4xx_hal_i2s_ex.c **** 
 521:Drivers/STM32F4xx_HAL_Driver/Src/stm32f4xx_hal_i2s_ex.c **** error :
 522:Drivers/STM32F4xx_HAL_Driver/Src/stm32f4xx_hal_i2s_ex.c ****   __HAL_UNLOCK(hi2s);
 523:Drivers/STM32F4xx_HAL_Driver/Src/stm32f4xx_hal_i2s_ex.c ****   return errorcode;
 524:Drivers/STM32F4xx_HAL_Driver/Src/stm32f4xx_hal_i2s_ex.c **** }
 525:Drivers/STM32F4xx_HAL_Driver/Src/stm32f4xx_hal_i2s_ex.c **** 
 526:Drivers/STM32F4xx_HAL_Driver/Src/stm32f4xx_hal_i2s_ex.c **** /**
 527:Drivers/STM32F4xx_HAL_Driver/Src/stm32f4xx_hal_i2s_ex.c ****   * @brief  Full-Duplex Transmit/Receive data in non-blocking mode using DMA
 528:Drivers/STM32F4xx_HAL_Driver/Src/stm32f4xx_hal_i2s_ex.c ****   * @param  hi2s pointer to a I2S_HandleTypeDef structure that contains
 529:Drivers/STM32F4xx_HAL_Driver/Src/stm32f4xx_hal_i2s_ex.c ****   *         the configuration information for I2S module
 530:Drivers/STM32F4xx_HAL_Driver/Src/stm32f4xx_hal_i2s_ex.c ****   * @param  pTxData a 16-bit pointer to the Transmit data buffer.
 531:Drivers/STM32F4xx_HAL_Driver/Src/stm32f4xx_hal_i2s_ex.c ****   * @param  pRxData a 16-bit pointer to the Receive data buffer.
 532:Drivers/STM32F4xx_HAL_Driver/Src/stm32f4xx_hal_i2s_ex.c ****   * @param  Size number of data sample to be sent:
 533:Drivers/STM32F4xx_HAL_Driver/Src/stm32f4xx_hal_i2s_ex.c ****   * @note   When a 16-bit data frame or a 16-bit data frame extended is selected during the I2S
 534:Drivers/STM32F4xx_HAL_Driver/Src/stm32f4xx_hal_i2s_ex.c ****   *         configuration phase, the Size parameter means the number of 16-bit data length
 535:Drivers/STM32F4xx_HAL_Driver/Src/stm32f4xx_hal_i2s_ex.c ****   *         in the transaction and when a 24-bit data frame or a 32-bit data frame is selected
 536:Drivers/STM32F4xx_HAL_Driver/Src/stm32f4xx_hal_i2s_ex.c ****   *         the Size parameter means the number of 16-bit data length.
 537:Drivers/STM32F4xx_HAL_Driver/Src/stm32f4xx_hal_i2s_ex.c ****   * @note   The I2S is kept enabled at the end of transaction to avoid the clock de-synchronization
 538:Drivers/STM32F4xx_HAL_Driver/Src/stm32f4xx_hal_i2s_ex.c ****   *         between Master and Slave(example: audio streaming).
 539:Drivers/STM32F4xx_HAL_Driver/Src/stm32f4xx_hal_i2s_ex.c ****   * @retval HAL status
 540:Drivers/STM32F4xx_HAL_Driver/Src/stm32f4xx_hal_i2s_ex.c ****   */
 541:Drivers/STM32F4xx_HAL_Driver/Src/stm32f4xx_hal_i2s_ex.c **** HAL_StatusTypeDef HAL_I2SEx_TransmitReceive_DMA(I2S_HandleTypeDef *hi2s,
 542:Drivers/STM32F4xx_HAL_Driver/Src/stm32f4xx_hal_i2s_ex.c ****                                                 uint16_t *pTxData,
 543:Drivers/STM32F4xx_HAL_Driver/Src/stm32f4xx_hal_i2s_ex.c ****                                                 uint16_t *pRxData,
ARM GAS  /var/folders/sd/sw6_rvdd1xd6sxxq8gkv_lph0000gn/T//cc7sexlg.s 			page 11


 544:Drivers/STM32F4xx_HAL_Driver/Src/stm32f4xx_hal_i2s_ex.c ****                                                 uint16_t Size)
 545:Drivers/STM32F4xx_HAL_Driver/Src/stm32f4xx_hal_i2s_ex.c **** {
 546:Drivers/STM32F4xx_HAL_Driver/Src/stm32f4xx_hal_i2s_ex.c ****   uint32_t *tmp = NULL;
 547:Drivers/STM32F4xx_HAL_Driver/Src/stm32f4xx_hal_i2s_ex.c ****   uint32_t tmp1 = 0U;
 548:Drivers/STM32F4xx_HAL_Driver/Src/stm32f4xx_hal_i2s_ex.c ****   HAL_StatusTypeDef errorcode = HAL_OK;
 549:Drivers/STM32F4xx_HAL_Driver/Src/stm32f4xx_hal_i2s_ex.c **** 
 550:Drivers/STM32F4xx_HAL_Driver/Src/stm32f4xx_hal_i2s_ex.c ****   if (hi2s->State != HAL_I2S_STATE_READY)
 551:Drivers/STM32F4xx_HAL_Driver/Src/stm32f4xx_hal_i2s_ex.c ****   {
 552:Drivers/STM32F4xx_HAL_Driver/Src/stm32f4xx_hal_i2s_ex.c ****     errorcode = HAL_BUSY;
 553:Drivers/STM32F4xx_HAL_Driver/Src/stm32f4xx_hal_i2s_ex.c ****     goto error;
 554:Drivers/STM32F4xx_HAL_Driver/Src/stm32f4xx_hal_i2s_ex.c ****   }
 555:Drivers/STM32F4xx_HAL_Driver/Src/stm32f4xx_hal_i2s_ex.c **** 
 556:Drivers/STM32F4xx_HAL_Driver/Src/stm32f4xx_hal_i2s_ex.c ****   if ((pTxData == NULL) || (pRxData == NULL) || (Size == 0U))
 557:Drivers/STM32F4xx_HAL_Driver/Src/stm32f4xx_hal_i2s_ex.c ****   {
 558:Drivers/STM32F4xx_HAL_Driver/Src/stm32f4xx_hal_i2s_ex.c ****     return  HAL_ERROR;
 559:Drivers/STM32F4xx_HAL_Driver/Src/stm32f4xx_hal_i2s_ex.c ****   }
 560:Drivers/STM32F4xx_HAL_Driver/Src/stm32f4xx_hal_i2s_ex.c **** 
 561:Drivers/STM32F4xx_HAL_Driver/Src/stm32f4xx_hal_i2s_ex.c ****   /* Process Locked */
 562:Drivers/STM32F4xx_HAL_Driver/Src/stm32f4xx_hal_i2s_ex.c ****   __HAL_LOCK(hi2s);
 563:Drivers/STM32F4xx_HAL_Driver/Src/stm32f4xx_hal_i2s_ex.c **** 
 564:Drivers/STM32F4xx_HAL_Driver/Src/stm32f4xx_hal_i2s_ex.c ****   hi2s->pTxBuffPtr = pTxData;
 565:Drivers/STM32F4xx_HAL_Driver/Src/stm32f4xx_hal_i2s_ex.c ****   hi2s->pRxBuffPtr = pRxData;
 566:Drivers/STM32F4xx_HAL_Driver/Src/stm32f4xx_hal_i2s_ex.c **** 
 567:Drivers/STM32F4xx_HAL_Driver/Src/stm32f4xx_hal_i2s_ex.c ****   tmp1 = hi2s->Instance->I2SCFGR & (SPI_I2SCFGR_DATLEN | SPI_I2SCFGR_CHLEN);
 568:Drivers/STM32F4xx_HAL_Driver/Src/stm32f4xx_hal_i2s_ex.c ****   /* Check the Data format: When a 16-bit data frame or a 16-bit data frame extended
 569:Drivers/STM32F4xx_HAL_Driver/Src/stm32f4xx_hal_i2s_ex.c ****   is selected during the I2S configuration phase, the Size parameter means the number
 570:Drivers/STM32F4xx_HAL_Driver/Src/stm32f4xx_hal_i2s_ex.c ****   of 16-bit data length in the transaction and when a 24-bit data frame or a 32-bit data
 571:Drivers/STM32F4xx_HAL_Driver/Src/stm32f4xx_hal_i2s_ex.c ****   frame is selected the Size parameter means the number of 16-bit data length. */
 572:Drivers/STM32F4xx_HAL_Driver/Src/stm32f4xx_hal_i2s_ex.c ****   if ((tmp1 == I2S_DATAFORMAT_24B) || (tmp1 == I2S_DATAFORMAT_32B))
 573:Drivers/STM32F4xx_HAL_Driver/Src/stm32f4xx_hal_i2s_ex.c ****   {
 574:Drivers/STM32F4xx_HAL_Driver/Src/stm32f4xx_hal_i2s_ex.c ****     hi2s->TxXferSize  = (Size << 1U);
 575:Drivers/STM32F4xx_HAL_Driver/Src/stm32f4xx_hal_i2s_ex.c ****     hi2s->TxXferCount = (Size << 1U);
 576:Drivers/STM32F4xx_HAL_Driver/Src/stm32f4xx_hal_i2s_ex.c ****     hi2s->RxXferSize  = (Size << 1U);
 577:Drivers/STM32F4xx_HAL_Driver/Src/stm32f4xx_hal_i2s_ex.c ****     hi2s->RxXferCount = (Size << 1U);
 578:Drivers/STM32F4xx_HAL_Driver/Src/stm32f4xx_hal_i2s_ex.c ****   }
 579:Drivers/STM32F4xx_HAL_Driver/Src/stm32f4xx_hal_i2s_ex.c ****   else
 580:Drivers/STM32F4xx_HAL_Driver/Src/stm32f4xx_hal_i2s_ex.c ****   {
 581:Drivers/STM32F4xx_HAL_Driver/Src/stm32f4xx_hal_i2s_ex.c ****     hi2s->TxXferSize  = Size;
 582:Drivers/STM32F4xx_HAL_Driver/Src/stm32f4xx_hal_i2s_ex.c ****     hi2s->TxXferCount = Size;
 583:Drivers/STM32F4xx_HAL_Driver/Src/stm32f4xx_hal_i2s_ex.c ****     hi2s->RxXferSize  = Size;
 584:Drivers/STM32F4xx_HAL_Driver/Src/stm32f4xx_hal_i2s_ex.c ****     hi2s->RxXferCount = Size;
 585:Drivers/STM32F4xx_HAL_Driver/Src/stm32f4xx_hal_i2s_ex.c ****   }
 586:Drivers/STM32F4xx_HAL_Driver/Src/stm32f4xx_hal_i2s_ex.c **** 
 587:Drivers/STM32F4xx_HAL_Driver/Src/stm32f4xx_hal_i2s_ex.c ****   hi2s->ErrorCode = HAL_I2S_ERROR_NONE;
 588:Drivers/STM32F4xx_HAL_Driver/Src/stm32f4xx_hal_i2s_ex.c ****   hi2s->State     = HAL_I2S_STATE_BUSY_TX_RX;
 589:Drivers/STM32F4xx_HAL_Driver/Src/stm32f4xx_hal_i2s_ex.c **** 
 590:Drivers/STM32F4xx_HAL_Driver/Src/stm32f4xx_hal_i2s_ex.c ****   /* Set the I2S Rx DMA Half transfer complete callback */
 591:Drivers/STM32F4xx_HAL_Driver/Src/stm32f4xx_hal_i2s_ex.c ****   hi2s->hdmarx->XferHalfCpltCallback = I2SEx_TxRxDMAHalfCplt;
 592:Drivers/STM32F4xx_HAL_Driver/Src/stm32f4xx_hal_i2s_ex.c **** 
 593:Drivers/STM32F4xx_HAL_Driver/Src/stm32f4xx_hal_i2s_ex.c ****   /* Set the I2S Rx DMA transfer complete callback */
 594:Drivers/STM32F4xx_HAL_Driver/Src/stm32f4xx_hal_i2s_ex.c ****   hi2s->hdmarx->XferCpltCallback  = I2SEx_TxRxDMACplt;
 595:Drivers/STM32F4xx_HAL_Driver/Src/stm32f4xx_hal_i2s_ex.c **** 
 596:Drivers/STM32F4xx_HAL_Driver/Src/stm32f4xx_hal_i2s_ex.c ****   /* Set the I2S Rx DMA error callback */
 597:Drivers/STM32F4xx_HAL_Driver/Src/stm32f4xx_hal_i2s_ex.c ****   hi2s->hdmarx->XferErrorCallback = I2SEx_TxRxDMAError;
 598:Drivers/STM32F4xx_HAL_Driver/Src/stm32f4xx_hal_i2s_ex.c **** 
 599:Drivers/STM32F4xx_HAL_Driver/Src/stm32f4xx_hal_i2s_ex.c ****   /* Set the I2S Tx DMA Half transfer complete callback as NULL */
 600:Drivers/STM32F4xx_HAL_Driver/Src/stm32f4xx_hal_i2s_ex.c ****   hi2s->hdmatx->XferHalfCpltCallback  = NULL;
ARM GAS  /var/folders/sd/sw6_rvdd1xd6sxxq8gkv_lph0000gn/T//cc7sexlg.s 			page 12


 601:Drivers/STM32F4xx_HAL_Driver/Src/stm32f4xx_hal_i2s_ex.c **** 
 602:Drivers/STM32F4xx_HAL_Driver/Src/stm32f4xx_hal_i2s_ex.c ****   /* Set the I2S Tx DMA transfer complete callback as NULL */
 603:Drivers/STM32F4xx_HAL_Driver/Src/stm32f4xx_hal_i2s_ex.c ****   hi2s->hdmatx->XferCpltCallback  = NULL;
 604:Drivers/STM32F4xx_HAL_Driver/Src/stm32f4xx_hal_i2s_ex.c **** 
 605:Drivers/STM32F4xx_HAL_Driver/Src/stm32f4xx_hal_i2s_ex.c ****   /* Set the I2S Tx DMA error callback */
 606:Drivers/STM32F4xx_HAL_Driver/Src/stm32f4xx_hal_i2s_ex.c ****   hi2s->hdmatx->XferErrorCallback = I2SEx_TxRxDMAError;
 607:Drivers/STM32F4xx_HAL_Driver/Src/stm32f4xx_hal_i2s_ex.c **** 
 608:Drivers/STM32F4xx_HAL_Driver/Src/stm32f4xx_hal_i2s_ex.c ****   tmp1 = hi2s->Instance->I2SCFGR & SPI_I2SCFGR_I2SCFG;
 609:Drivers/STM32F4xx_HAL_Driver/Src/stm32f4xx_hal_i2s_ex.c ****   /* Check if the I2S_MODE_MASTER_TX or I2S_MODE_SLAVE_TX Mode is selected */
 610:Drivers/STM32F4xx_HAL_Driver/Src/stm32f4xx_hal_i2s_ex.c ****   if ((tmp1 == I2S_MODE_MASTER_TX) || (tmp1 == I2S_MODE_SLAVE_TX))
 611:Drivers/STM32F4xx_HAL_Driver/Src/stm32f4xx_hal_i2s_ex.c ****   {
 612:Drivers/STM32F4xx_HAL_Driver/Src/stm32f4xx_hal_i2s_ex.c ****     /* Enable the Rx DMA Stream */
 613:Drivers/STM32F4xx_HAL_Driver/Src/stm32f4xx_hal_i2s_ex.c ****     tmp = (uint32_t *)&pRxData;
 614:Drivers/STM32F4xx_HAL_Driver/Src/stm32f4xx_hal_i2s_ex.c ****     HAL_DMA_Start_IT(hi2s->hdmarx, (uint32_t)&I2SxEXT(hi2s->Instance)->DR, *(uint32_t *)tmp, hi2s->
 615:Drivers/STM32F4xx_HAL_Driver/Src/stm32f4xx_hal_i2s_ex.c **** 
 616:Drivers/STM32F4xx_HAL_Driver/Src/stm32f4xx_hal_i2s_ex.c ****     /* Enable Rx DMA Request */
 617:Drivers/STM32F4xx_HAL_Driver/Src/stm32f4xx_hal_i2s_ex.c ****     SET_BIT(I2SxEXT(hi2s->Instance)->CR2, SPI_CR2_RXDMAEN);
 618:Drivers/STM32F4xx_HAL_Driver/Src/stm32f4xx_hal_i2s_ex.c **** 
 619:Drivers/STM32F4xx_HAL_Driver/Src/stm32f4xx_hal_i2s_ex.c ****     /* Enable the Tx DMA Stream */
 620:Drivers/STM32F4xx_HAL_Driver/Src/stm32f4xx_hal_i2s_ex.c ****     tmp = (uint32_t *)&pTxData;
 621:Drivers/STM32F4xx_HAL_Driver/Src/stm32f4xx_hal_i2s_ex.c ****     HAL_DMA_Start_IT(hi2s->hdmatx, *(uint32_t *)tmp, (uint32_t)&hi2s->Instance->DR, hi2s->TxXferSiz
 622:Drivers/STM32F4xx_HAL_Driver/Src/stm32f4xx_hal_i2s_ex.c **** 
 623:Drivers/STM32F4xx_HAL_Driver/Src/stm32f4xx_hal_i2s_ex.c ****     /* Enable Tx DMA Request */
 624:Drivers/STM32F4xx_HAL_Driver/Src/stm32f4xx_hal_i2s_ex.c ****     SET_BIT(hi2s->Instance->CR2, SPI_CR2_TXDMAEN);
 625:Drivers/STM32F4xx_HAL_Driver/Src/stm32f4xx_hal_i2s_ex.c **** 
 626:Drivers/STM32F4xx_HAL_Driver/Src/stm32f4xx_hal_i2s_ex.c ****     /* Check if the I2S is already enabled */
 627:Drivers/STM32F4xx_HAL_Driver/Src/stm32f4xx_hal_i2s_ex.c ****     if ((hi2s->Instance->I2SCFGR & SPI_I2SCFGR_I2SE) != SPI_I2SCFGR_I2SE)
 628:Drivers/STM32F4xx_HAL_Driver/Src/stm32f4xx_hal_i2s_ex.c ****     {
 629:Drivers/STM32F4xx_HAL_Driver/Src/stm32f4xx_hal_i2s_ex.c ****       /* Enable I2Sext(receiver) before enabling I2Sx peripheral */
 630:Drivers/STM32F4xx_HAL_Driver/Src/stm32f4xx_hal_i2s_ex.c ****       __HAL_I2SEXT_ENABLE(hi2s);
 631:Drivers/STM32F4xx_HAL_Driver/Src/stm32f4xx_hal_i2s_ex.c **** 
 632:Drivers/STM32F4xx_HAL_Driver/Src/stm32f4xx_hal_i2s_ex.c ****       /* Enable I2S peripheral after the I2Sext */
 633:Drivers/STM32F4xx_HAL_Driver/Src/stm32f4xx_hal_i2s_ex.c ****       __HAL_I2S_ENABLE(hi2s);
 634:Drivers/STM32F4xx_HAL_Driver/Src/stm32f4xx_hal_i2s_ex.c ****     }
 635:Drivers/STM32F4xx_HAL_Driver/Src/stm32f4xx_hal_i2s_ex.c ****   }
 636:Drivers/STM32F4xx_HAL_Driver/Src/stm32f4xx_hal_i2s_ex.c ****   else
 637:Drivers/STM32F4xx_HAL_Driver/Src/stm32f4xx_hal_i2s_ex.c ****   {
 638:Drivers/STM32F4xx_HAL_Driver/Src/stm32f4xx_hal_i2s_ex.c ****     /* Check if Master Receiver mode is selected */
 639:Drivers/STM32F4xx_HAL_Driver/Src/stm32f4xx_hal_i2s_ex.c ****     if ((hi2s->Instance->I2SCFGR & SPI_I2SCFGR_I2SCFG) == I2S_MODE_MASTER_RX)
 640:Drivers/STM32F4xx_HAL_Driver/Src/stm32f4xx_hal_i2s_ex.c ****     {
 641:Drivers/STM32F4xx_HAL_Driver/Src/stm32f4xx_hal_i2s_ex.c ****       /* Clear the Overrun Flag by a read operation on the SPI_DR register followed by a read
 642:Drivers/STM32F4xx_HAL_Driver/Src/stm32f4xx_hal_i2s_ex.c ****       access to the SPI_SR register. */
 643:Drivers/STM32F4xx_HAL_Driver/Src/stm32f4xx_hal_i2s_ex.c ****       __HAL_I2S_CLEAR_OVRFLAG(hi2s);
 644:Drivers/STM32F4xx_HAL_Driver/Src/stm32f4xx_hal_i2s_ex.c ****     }
 645:Drivers/STM32F4xx_HAL_Driver/Src/stm32f4xx_hal_i2s_ex.c ****     /* Enable the Tx DMA Stream */
 646:Drivers/STM32F4xx_HAL_Driver/Src/stm32f4xx_hal_i2s_ex.c ****     tmp = (uint32_t *)&pTxData;
 647:Drivers/STM32F4xx_HAL_Driver/Src/stm32f4xx_hal_i2s_ex.c ****     HAL_DMA_Start_IT(hi2s->hdmatx, *(uint32_t *)tmp, (uint32_t)&I2SxEXT(hi2s->Instance)->DR, hi2s->
 648:Drivers/STM32F4xx_HAL_Driver/Src/stm32f4xx_hal_i2s_ex.c **** 
 649:Drivers/STM32F4xx_HAL_Driver/Src/stm32f4xx_hal_i2s_ex.c ****     /* Enable Tx DMA Request */
 650:Drivers/STM32F4xx_HAL_Driver/Src/stm32f4xx_hal_i2s_ex.c ****     SET_BIT(I2SxEXT(hi2s->Instance)->CR2, SPI_CR2_TXDMAEN);
 651:Drivers/STM32F4xx_HAL_Driver/Src/stm32f4xx_hal_i2s_ex.c **** 
 652:Drivers/STM32F4xx_HAL_Driver/Src/stm32f4xx_hal_i2s_ex.c ****     /* Enable the Rx DMA Stream */
 653:Drivers/STM32F4xx_HAL_Driver/Src/stm32f4xx_hal_i2s_ex.c ****     tmp = (uint32_t *)&pRxData;
 654:Drivers/STM32F4xx_HAL_Driver/Src/stm32f4xx_hal_i2s_ex.c ****     HAL_DMA_Start_IT(hi2s->hdmarx, (uint32_t)&hi2s->Instance->DR, *(uint32_t *)tmp, hi2s->RxXferSiz
 655:Drivers/STM32F4xx_HAL_Driver/Src/stm32f4xx_hal_i2s_ex.c **** 
 656:Drivers/STM32F4xx_HAL_Driver/Src/stm32f4xx_hal_i2s_ex.c ****     /* Enable Rx DMA Request */
 657:Drivers/STM32F4xx_HAL_Driver/Src/stm32f4xx_hal_i2s_ex.c ****     SET_BIT(hi2s->Instance->CR2, SPI_CR2_RXDMAEN);
ARM GAS  /var/folders/sd/sw6_rvdd1xd6sxxq8gkv_lph0000gn/T//cc7sexlg.s 			page 13


 658:Drivers/STM32F4xx_HAL_Driver/Src/stm32f4xx_hal_i2s_ex.c **** 
 659:Drivers/STM32F4xx_HAL_Driver/Src/stm32f4xx_hal_i2s_ex.c ****     /* Check if the I2S is already enabled */
 660:Drivers/STM32F4xx_HAL_Driver/Src/stm32f4xx_hal_i2s_ex.c ****     if ((hi2s->Instance->I2SCFGR & SPI_I2SCFGR_I2SE) != SPI_I2SCFGR_I2SE)
 661:Drivers/STM32F4xx_HAL_Driver/Src/stm32f4xx_hal_i2s_ex.c ****     {
 662:Drivers/STM32F4xx_HAL_Driver/Src/stm32f4xx_hal_i2s_ex.c ****       /* Enable I2Sext(transmitter) before enabling I2Sx peripheral */
 663:Drivers/STM32F4xx_HAL_Driver/Src/stm32f4xx_hal_i2s_ex.c ****       __HAL_I2SEXT_ENABLE(hi2s);
 664:Drivers/STM32F4xx_HAL_Driver/Src/stm32f4xx_hal_i2s_ex.c ****       /* Enable I2S peripheral before the I2Sext */
 665:Drivers/STM32F4xx_HAL_Driver/Src/stm32f4xx_hal_i2s_ex.c ****       __HAL_I2S_ENABLE(hi2s);
 666:Drivers/STM32F4xx_HAL_Driver/Src/stm32f4xx_hal_i2s_ex.c ****     }
 667:Drivers/STM32F4xx_HAL_Driver/Src/stm32f4xx_hal_i2s_ex.c ****   }
 668:Drivers/STM32F4xx_HAL_Driver/Src/stm32f4xx_hal_i2s_ex.c **** 
 669:Drivers/STM32F4xx_HAL_Driver/Src/stm32f4xx_hal_i2s_ex.c **** error :
 670:Drivers/STM32F4xx_HAL_Driver/Src/stm32f4xx_hal_i2s_ex.c ****   __HAL_UNLOCK(hi2s);
 671:Drivers/STM32F4xx_HAL_Driver/Src/stm32f4xx_hal_i2s_ex.c ****   return errorcode;
 672:Drivers/STM32F4xx_HAL_Driver/Src/stm32f4xx_hal_i2s_ex.c **** }
 673:Drivers/STM32F4xx_HAL_Driver/Src/stm32f4xx_hal_i2s_ex.c **** 
 674:Drivers/STM32F4xx_HAL_Driver/Src/stm32f4xx_hal_i2s_ex.c **** /**
 675:Drivers/STM32F4xx_HAL_Driver/Src/stm32f4xx_hal_i2s_ex.c ****   * @brief  This function handles I2S/I2Sext interrupt requests in full-duplex mode.
 676:Drivers/STM32F4xx_HAL_Driver/Src/stm32f4xx_hal_i2s_ex.c ****   * @param  hi2s I2S handle
 677:Drivers/STM32F4xx_HAL_Driver/Src/stm32f4xx_hal_i2s_ex.c ****   * @retval HAL status
 678:Drivers/STM32F4xx_HAL_Driver/Src/stm32f4xx_hal_i2s_ex.c ****   */
 679:Drivers/STM32F4xx_HAL_Driver/Src/stm32f4xx_hal_i2s_ex.c **** void HAL_I2SEx_FullDuplex_IRQHandler(I2S_HandleTypeDef *hi2s)
 680:Drivers/STM32F4xx_HAL_Driver/Src/stm32f4xx_hal_i2s_ex.c **** {
 681:Drivers/STM32F4xx_HAL_Driver/Src/stm32f4xx_hal_i2s_ex.c ****   __IO uint32_t i2ssr     = hi2s->Instance->SR;
 682:Drivers/STM32F4xx_HAL_Driver/Src/stm32f4xx_hal_i2s_ex.c ****   __IO uint32_t i2sextsr  = I2SxEXT(hi2s->Instance)->SR;
 683:Drivers/STM32F4xx_HAL_Driver/Src/stm32f4xx_hal_i2s_ex.c ****   __IO uint32_t i2scr2    = hi2s->Instance->CR2;
 684:Drivers/STM32F4xx_HAL_Driver/Src/stm32f4xx_hal_i2s_ex.c ****   __IO uint32_t i2sextcr2 = I2SxEXT(hi2s->Instance)->CR2;
 685:Drivers/STM32F4xx_HAL_Driver/Src/stm32f4xx_hal_i2s_ex.c **** 
 686:Drivers/STM32F4xx_HAL_Driver/Src/stm32f4xx_hal_i2s_ex.c ****   /* Check if the I2S_MODE_MASTER_TX or I2S_MODE_SLAVE_TX Mode is selected */
 687:Drivers/STM32F4xx_HAL_Driver/Src/stm32f4xx_hal_i2s_ex.c ****   if ((hi2s->Init.Mode == I2S_MODE_MASTER_TX) || (hi2s->Init.Mode == I2S_MODE_SLAVE_TX))
 688:Drivers/STM32F4xx_HAL_Driver/Src/stm32f4xx_hal_i2s_ex.c ****   {
 689:Drivers/STM32F4xx_HAL_Driver/Src/stm32f4xx_hal_i2s_ex.c ****     /* I2S in mode Transmitter -------------------------------------------------*/
 690:Drivers/STM32F4xx_HAL_Driver/Src/stm32f4xx_hal_i2s_ex.c ****     if (((i2ssr & I2S_FLAG_TXE) == I2S_FLAG_TXE) && ((i2scr2 & I2S_IT_TXE) != RESET))
 691:Drivers/STM32F4xx_HAL_Driver/Src/stm32f4xx_hal_i2s_ex.c ****     {
 692:Drivers/STM32F4xx_HAL_Driver/Src/stm32f4xx_hal_i2s_ex.c ****       /* When the I2S mode is configured as I2S_MODE_MASTER_TX or I2S_MODE_SLAVE_TX,
 693:Drivers/STM32F4xx_HAL_Driver/Src/stm32f4xx_hal_i2s_ex.c ****       the I2S TXE interrupt will be generated to manage the full-duplex transmit phase. */
 694:Drivers/STM32F4xx_HAL_Driver/Src/stm32f4xx_hal_i2s_ex.c ****       I2SEx_TxISR_I2S(hi2s);
 695:Drivers/STM32F4xx_HAL_Driver/Src/stm32f4xx_hal_i2s_ex.c ****     }
 696:Drivers/STM32F4xx_HAL_Driver/Src/stm32f4xx_hal_i2s_ex.c **** 
 697:Drivers/STM32F4xx_HAL_Driver/Src/stm32f4xx_hal_i2s_ex.c ****     /* I2Sext in mode Receiver -----------------------------------------------*/
 698:Drivers/STM32F4xx_HAL_Driver/Src/stm32f4xx_hal_i2s_ex.c ****     if (((i2sextsr & I2S_FLAG_RXNE) == I2S_FLAG_RXNE) && ((i2sextcr2 & I2S_IT_RXNE) != RESET))
 699:Drivers/STM32F4xx_HAL_Driver/Src/stm32f4xx_hal_i2s_ex.c ****     {
 700:Drivers/STM32F4xx_HAL_Driver/Src/stm32f4xx_hal_i2s_ex.c ****       /* When the I2S mode is configured as I2S_MODE_MASTER_TX or I2S_MODE_SLAVE_TX,
 701:Drivers/STM32F4xx_HAL_Driver/Src/stm32f4xx_hal_i2s_ex.c ****       the I2Sext RXNE interrupt will be generated to manage the full-duplex receive phase. */
 702:Drivers/STM32F4xx_HAL_Driver/Src/stm32f4xx_hal_i2s_ex.c ****       I2SEx_RxISR_I2SExt(hi2s);
 703:Drivers/STM32F4xx_HAL_Driver/Src/stm32f4xx_hal_i2s_ex.c ****     }
 704:Drivers/STM32F4xx_HAL_Driver/Src/stm32f4xx_hal_i2s_ex.c **** 
 705:Drivers/STM32F4xx_HAL_Driver/Src/stm32f4xx_hal_i2s_ex.c ****     /* I2Sext Overrun error interrupt occurred --------------------------------*/
 706:Drivers/STM32F4xx_HAL_Driver/Src/stm32f4xx_hal_i2s_ex.c ****     if (((i2sextsr & I2S_FLAG_OVR) == I2S_FLAG_OVR) && ((i2sextcr2 & I2S_IT_ERR) != RESET))
 707:Drivers/STM32F4xx_HAL_Driver/Src/stm32f4xx_hal_i2s_ex.c ****     {
 708:Drivers/STM32F4xx_HAL_Driver/Src/stm32f4xx_hal_i2s_ex.c ****       /* Disable RXNE and ERR interrupt */
 709:Drivers/STM32F4xx_HAL_Driver/Src/stm32f4xx_hal_i2s_ex.c ****       __HAL_I2SEXT_DISABLE_IT(hi2s, (I2S_IT_RXNE | I2S_IT_ERR));
 710:Drivers/STM32F4xx_HAL_Driver/Src/stm32f4xx_hal_i2s_ex.c **** 
 711:Drivers/STM32F4xx_HAL_Driver/Src/stm32f4xx_hal_i2s_ex.c ****       /* Disable TXE and ERR interrupt */
 712:Drivers/STM32F4xx_HAL_Driver/Src/stm32f4xx_hal_i2s_ex.c ****       __HAL_I2S_DISABLE_IT(hi2s, (I2S_IT_TXE | I2S_IT_ERR));
 713:Drivers/STM32F4xx_HAL_Driver/Src/stm32f4xx_hal_i2s_ex.c **** 
 714:Drivers/STM32F4xx_HAL_Driver/Src/stm32f4xx_hal_i2s_ex.c ****       /* Clear Overrun flag */
ARM GAS  /var/folders/sd/sw6_rvdd1xd6sxxq8gkv_lph0000gn/T//cc7sexlg.s 			page 14


 715:Drivers/STM32F4xx_HAL_Driver/Src/stm32f4xx_hal_i2s_ex.c ****       __HAL_I2S_CLEAR_OVRFLAG(hi2s);
 716:Drivers/STM32F4xx_HAL_Driver/Src/stm32f4xx_hal_i2s_ex.c **** 
 717:Drivers/STM32F4xx_HAL_Driver/Src/stm32f4xx_hal_i2s_ex.c ****       /* Set the I2S State ready */
 718:Drivers/STM32F4xx_HAL_Driver/Src/stm32f4xx_hal_i2s_ex.c ****       hi2s->State = HAL_I2S_STATE_READY;
 719:Drivers/STM32F4xx_HAL_Driver/Src/stm32f4xx_hal_i2s_ex.c **** 
 720:Drivers/STM32F4xx_HAL_Driver/Src/stm32f4xx_hal_i2s_ex.c ****       /* Set the error code and execute error callback*/
 721:Drivers/STM32F4xx_HAL_Driver/Src/stm32f4xx_hal_i2s_ex.c ****       SET_BIT(hi2s->ErrorCode, HAL_I2S_ERROR_OVR);
 722:Drivers/STM32F4xx_HAL_Driver/Src/stm32f4xx_hal_i2s_ex.c ****       /* Call user error callback */
 723:Drivers/STM32F4xx_HAL_Driver/Src/stm32f4xx_hal_i2s_ex.c **** #if (USE_HAL_I2S_REGISTER_CALLBACKS == 1U)
 724:Drivers/STM32F4xx_HAL_Driver/Src/stm32f4xx_hal_i2s_ex.c ****       hi2s->ErrorCallback(hi2s);
 725:Drivers/STM32F4xx_HAL_Driver/Src/stm32f4xx_hal_i2s_ex.c **** #else
 726:Drivers/STM32F4xx_HAL_Driver/Src/stm32f4xx_hal_i2s_ex.c ****       HAL_I2S_ErrorCallback(hi2s);
 727:Drivers/STM32F4xx_HAL_Driver/Src/stm32f4xx_hal_i2s_ex.c **** #endif /* USE_HAL_I2S_REGISTER_CALLBACKS */
 728:Drivers/STM32F4xx_HAL_Driver/Src/stm32f4xx_hal_i2s_ex.c ****     }
 729:Drivers/STM32F4xx_HAL_Driver/Src/stm32f4xx_hal_i2s_ex.c **** 
 730:Drivers/STM32F4xx_HAL_Driver/Src/stm32f4xx_hal_i2s_ex.c ****     /* I2S Underrun error interrupt occurred ----------------------------------*/
 731:Drivers/STM32F4xx_HAL_Driver/Src/stm32f4xx_hal_i2s_ex.c ****     if (((i2ssr & I2S_FLAG_UDR) == I2S_FLAG_UDR) && ((i2scr2 & I2S_IT_ERR) != RESET))
 732:Drivers/STM32F4xx_HAL_Driver/Src/stm32f4xx_hal_i2s_ex.c ****     {
 733:Drivers/STM32F4xx_HAL_Driver/Src/stm32f4xx_hal_i2s_ex.c ****       /* Disable TXE and ERR interrupt */
 734:Drivers/STM32F4xx_HAL_Driver/Src/stm32f4xx_hal_i2s_ex.c ****       __HAL_I2S_DISABLE_IT(hi2s, (I2S_IT_TXE | I2S_IT_ERR));
 735:Drivers/STM32F4xx_HAL_Driver/Src/stm32f4xx_hal_i2s_ex.c **** 
 736:Drivers/STM32F4xx_HAL_Driver/Src/stm32f4xx_hal_i2s_ex.c ****       /* Disable RXNE and ERR interrupt */
 737:Drivers/STM32F4xx_HAL_Driver/Src/stm32f4xx_hal_i2s_ex.c ****       __HAL_I2SEXT_DISABLE_IT(hi2s, (I2S_IT_RXNE | I2S_IT_ERR));
 738:Drivers/STM32F4xx_HAL_Driver/Src/stm32f4xx_hal_i2s_ex.c **** 
 739:Drivers/STM32F4xx_HAL_Driver/Src/stm32f4xx_hal_i2s_ex.c ****       /* Clear underrun flag */
 740:Drivers/STM32F4xx_HAL_Driver/Src/stm32f4xx_hal_i2s_ex.c ****       __HAL_I2S_CLEAR_UDRFLAG(hi2s);
 741:Drivers/STM32F4xx_HAL_Driver/Src/stm32f4xx_hal_i2s_ex.c **** 
 742:Drivers/STM32F4xx_HAL_Driver/Src/stm32f4xx_hal_i2s_ex.c ****       /* Set the I2S State ready */
 743:Drivers/STM32F4xx_HAL_Driver/Src/stm32f4xx_hal_i2s_ex.c ****       hi2s->State = HAL_I2S_STATE_READY;
 744:Drivers/STM32F4xx_HAL_Driver/Src/stm32f4xx_hal_i2s_ex.c **** 
 745:Drivers/STM32F4xx_HAL_Driver/Src/stm32f4xx_hal_i2s_ex.c ****       /* Set the error code and execute error callback*/
 746:Drivers/STM32F4xx_HAL_Driver/Src/stm32f4xx_hal_i2s_ex.c ****       SET_BIT(hi2s->ErrorCode, HAL_I2S_ERROR_UDR);
 747:Drivers/STM32F4xx_HAL_Driver/Src/stm32f4xx_hal_i2s_ex.c ****       /* Call user error callback */
 748:Drivers/STM32F4xx_HAL_Driver/Src/stm32f4xx_hal_i2s_ex.c **** #if (USE_HAL_I2S_REGISTER_CALLBACKS == 1U)
 749:Drivers/STM32F4xx_HAL_Driver/Src/stm32f4xx_hal_i2s_ex.c ****       hi2s->ErrorCallback(hi2s);
 750:Drivers/STM32F4xx_HAL_Driver/Src/stm32f4xx_hal_i2s_ex.c **** #else
 751:Drivers/STM32F4xx_HAL_Driver/Src/stm32f4xx_hal_i2s_ex.c ****       HAL_I2S_ErrorCallback(hi2s);
 752:Drivers/STM32F4xx_HAL_Driver/Src/stm32f4xx_hal_i2s_ex.c **** #endif /* USE_HAL_I2S_REGISTER_CALLBACKS */
 753:Drivers/STM32F4xx_HAL_Driver/Src/stm32f4xx_hal_i2s_ex.c ****     }
 754:Drivers/STM32F4xx_HAL_Driver/Src/stm32f4xx_hal_i2s_ex.c ****   }
 755:Drivers/STM32F4xx_HAL_Driver/Src/stm32f4xx_hal_i2s_ex.c ****   /* The I2S_MODE_MASTER_RX or I2S_MODE_SLAVE_RX Mode is selected */
 756:Drivers/STM32F4xx_HAL_Driver/Src/stm32f4xx_hal_i2s_ex.c ****   else
 757:Drivers/STM32F4xx_HAL_Driver/Src/stm32f4xx_hal_i2s_ex.c ****   {
 758:Drivers/STM32F4xx_HAL_Driver/Src/stm32f4xx_hal_i2s_ex.c ****     /* I2Sext in mode Transmitter ----------------------------------------------*/
 759:Drivers/STM32F4xx_HAL_Driver/Src/stm32f4xx_hal_i2s_ex.c ****     if (((i2sextsr & I2S_FLAG_TXE) == I2S_FLAG_TXE) && ((i2sextcr2 & I2S_IT_TXE) != RESET))
 760:Drivers/STM32F4xx_HAL_Driver/Src/stm32f4xx_hal_i2s_ex.c ****     {
 761:Drivers/STM32F4xx_HAL_Driver/Src/stm32f4xx_hal_i2s_ex.c ****       /* When the I2S mode is configured as I2S_MODE_MASTER_RX or I2S_MODE_SLAVE_RX,
 762:Drivers/STM32F4xx_HAL_Driver/Src/stm32f4xx_hal_i2s_ex.c ****       the I2Sext TXE interrupt will be generated to manage the full-duplex transmit phase. */
 763:Drivers/STM32F4xx_HAL_Driver/Src/stm32f4xx_hal_i2s_ex.c ****       I2SEx_TxISR_I2SExt(hi2s);
 764:Drivers/STM32F4xx_HAL_Driver/Src/stm32f4xx_hal_i2s_ex.c ****     }
 765:Drivers/STM32F4xx_HAL_Driver/Src/stm32f4xx_hal_i2s_ex.c **** 
 766:Drivers/STM32F4xx_HAL_Driver/Src/stm32f4xx_hal_i2s_ex.c ****     /* I2S in mode Receiver --------------------------------------------------*/
 767:Drivers/STM32F4xx_HAL_Driver/Src/stm32f4xx_hal_i2s_ex.c ****     if (((i2ssr & I2S_FLAG_RXNE) == I2S_FLAG_RXNE) && ((i2scr2 & I2S_IT_RXNE) != RESET))
 768:Drivers/STM32F4xx_HAL_Driver/Src/stm32f4xx_hal_i2s_ex.c ****     {
 769:Drivers/STM32F4xx_HAL_Driver/Src/stm32f4xx_hal_i2s_ex.c ****       /* When the I2S mode is configured as I2S_MODE_MASTER_RX or I2S_MODE_SLAVE_RX,
 770:Drivers/STM32F4xx_HAL_Driver/Src/stm32f4xx_hal_i2s_ex.c ****       the I2S RXNE interrupt will be generated to manage the full-duplex receive phase. */
 771:Drivers/STM32F4xx_HAL_Driver/Src/stm32f4xx_hal_i2s_ex.c ****       I2SEx_RxISR_I2S(hi2s);
ARM GAS  /var/folders/sd/sw6_rvdd1xd6sxxq8gkv_lph0000gn/T//cc7sexlg.s 			page 15


 772:Drivers/STM32F4xx_HAL_Driver/Src/stm32f4xx_hal_i2s_ex.c ****     }
 773:Drivers/STM32F4xx_HAL_Driver/Src/stm32f4xx_hal_i2s_ex.c **** 
 774:Drivers/STM32F4xx_HAL_Driver/Src/stm32f4xx_hal_i2s_ex.c ****     /* I2S Overrun error interrupt occurred -------------------------------------*/
 775:Drivers/STM32F4xx_HAL_Driver/Src/stm32f4xx_hal_i2s_ex.c ****     if (((i2ssr & I2S_FLAG_OVR) == I2S_FLAG_OVR) && ((i2scr2 & I2S_IT_ERR) != RESET))
 776:Drivers/STM32F4xx_HAL_Driver/Src/stm32f4xx_hal_i2s_ex.c ****     {
 777:Drivers/STM32F4xx_HAL_Driver/Src/stm32f4xx_hal_i2s_ex.c ****       /* Disable RXNE and ERR interrupt */
 778:Drivers/STM32F4xx_HAL_Driver/Src/stm32f4xx_hal_i2s_ex.c ****       __HAL_I2S_DISABLE_IT(hi2s, (I2S_IT_RXNE | I2S_IT_ERR));
 779:Drivers/STM32F4xx_HAL_Driver/Src/stm32f4xx_hal_i2s_ex.c **** 
 780:Drivers/STM32F4xx_HAL_Driver/Src/stm32f4xx_hal_i2s_ex.c ****       /* Disable TXE and ERR interrupt */
 781:Drivers/STM32F4xx_HAL_Driver/Src/stm32f4xx_hal_i2s_ex.c ****       __HAL_I2SEXT_DISABLE_IT(hi2s, (I2S_IT_TXE | I2S_IT_ERR));
 782:Drivers/STM32F4xx_HAL_Driver/Src/stm32f4xx_hal_i2s_ex.c **** 
 783:Drivers/STM32F4xx_HAL_Driver/Src/stm32f4xx_hal_i2s_ex.c ****       /* Set the I2S State ready */
 784:Drivers/STM32F4xx_HAL_Driver/Src/stm32f4xx_hal_i2s_ex.c ****       hi2s->State = HAL_I2S_STATE_READY;
 785:Drivers/STM32F4xx_HAL_Driver/Src/stm32f4xx_hal_i2s_ex.c **** 
 786:Drivers/STM32F4xx_HAL_Driver/Src/stm32f4xx_hal_i2s_ex.c ****       /* Set the error code and execute error callback*/
 787:Drivers/STM32F4xx_HAL_Driver/Src/stm32f4xx_hal_i2s_ex.c ****       SET_BIT(hi2s->ErrorCode, HAL_I2S_ERROR_OVR);
 788:Drivers/STM32F4xx_HAL_Driver/Src/stm32f4xx_hal_i2s_ex.c ****       /* Call user error callback */
 789:Drivers/STM32F4xx_HAL_Driver/Src/stm32f4xx_hal_i2s_ex.c **** #if (USE_HAL_I2S_REGISTER_CALLBACKS == 1U)
 790:Drivers/STM32F4xx_HAL_Driver/Src/stm32f4xx_hal_i2s_ex.c ****       hi2s->ErrorCallback(hi2s);
 791:Drivers/STM32F4xx_HAL_Driver/Src/stm32f4xx_hal_i2s_ex.c **** #else
 792:Drivers/STM32F4xx_HAL_Driver/Src/stm32f4xx_hal_i2s_ex.c ****       HAL_I2S_ErrorCallback(hi2s);
 793:Drivers/STM32F4xx_HAL_Driver/Src/stm32f4xx_hal_i2s_ex.c **** #endif /* USE_HAL_I2S_REGISTER_CALLBACKS */
 794:Drivers/STM32F4xx_HAL_Driver/Src/stm32f4xx_hal_i2s_ex.c ****     }
 795:Drivers/STM32F4xx_HAL_Driver/Src/stm32f4xx_hal_i2s_ex.c **** 
 796:Drivers/STM32F4xx_HAL_Driver/Src/stm32f4xx_hal_i2s_ex.c ****     /* I2Sext Underrun error interrupt occurred -------------------------------*/
 797:Drivers/STM32F4xx_HAL_Driver/Src/stm32f4xx_hal_i2s_ex.c ****     if (((i2sextsr & I2S_FLAG_UDR) == I2S_FLAG_UDR) && ((i2sextcr2 & I2S_IT_ERR) != RESET))
 798:Drivers/STM32F4xx_HAL_Driver/Src/stm32f4xx_hal_i2s_ex.c ****     {
 799:Drivers/STM32F4xx_HAL_Driver/Src/stm32f4xx_hal_i2s_ex.c ****       /* Disable TXE and ERR interrupt */
 800:Drivers/STM32F4xx_HAL_Driver/Src/stm32f4xx_hal_i2s_ex.c ****       __HAL_I2SEXT_DISABLE_IT(hi2s, (I2S_IT_TXE | I2S_IT_ERR));
 801:Drivers/STM32F4xx_HAL_Driver/Src/stm32f4xx_hal_i2s_ex.c **** 
 802:Drivers/STM32F4xx_HAL_Driver/Src/stm32f4xx_hal_i2s_ex.c ****       /* Disable RXNE and ERR interrupt */
 803:Drivers/STM32F4xx_HAL_Driver/Src/stm32f4xx_hal_i2s_ex.c ****       __HAL_I2S_DISABLE_IT(hi2s, (I2S_IT_RXNE | I2S_IT_ERR));
 804:Drivers/STM32F4xx_HAL_Driver/Src/stm32f4xx_hal_i2s_ex.c **** 
 805:Drivers/STM32F4xx_HAL_Driver/Src/stm32f4xx_hal_i2s_ex.c ****       /* Set the I2S State ready */
 806:Drivers/STM32F4xx_HAL_Driver/Src/stm32f4xx_hal_i2s_ex.c ****       hi2s->State = HAL_I2S_STATE_READY;
 807:Drivers/STM32F4xx_HAL_Driver/Src/stm32f4xx_hal_i2s_ex.c **** 
 808:Drivers/STM32F4xx_HAL_Driver/Src/stm32f4xx_hal_i2s_ex.c ****       /* Set the error code and execute error callback*/
 809:Drivers/STM32F4xx_HAL_Driver/Src/stm32f4xx_hal_i2s_ex.c ****       SET_BIT(hi2s->ErrorCode, HAL_I2S_ERROR_UDR);
 810:Drivers/STM32F4xx_HAL_Driver/Src/stm32f4xx_hal_i2s_ex.c ****       /* Call user error callback */
 811:Drivers/STM32F4xx_HAL_Driver/Src/stm32f4xx_hal_i2s_ex.c **** #if (USE_HAL_I2S_REGISTER_CALLBACKS == 1U)
 812:Drivers/STM32F4xx_HAL_Driver/Src/stm32f4xx_hal_i2s_ex.c ****       hi2s->ErrorCallback(hi2s);
 813:Drivers/STM32F4xx_HAL_Driver/Src/stm32f4xx_hal_i2s_ex.c **** #else
 814:Drivers/STM32F4xx_HAL_Driver/Src/stm32f4xx_hal_i2s_ex.c ****       HAL_I2S_ErrorCallback(hi2s);
 815:Drivers/STM32F4xx_HAL_Driver/Src/stm32f4xx_hal_i2s_ex.c **** #endif /* USE_HAL_I2S_REGISTER_CALLBACKS */
 816:Drivers/STM32F4xx_HAL_Driver/Src/stm32f4xx_hal_i2s_ex.c ****     }
 817:Drivers/STM32F4xx_HAL_Driver/Src/stm32f4xx_hal_i2s_ex.c ****   }
 818:Drivers/STM32F4xx_HAL_Driver/Src/stm32f4xx_hal_i2s_ex.c **** }
 819:Drivers/STM32F4xx_HAL_Driver/Src/stm32f4xx_hal_i2s_ex.c **** 
 820:Drivers/STM32F4xx_HAL_Driver/Src/stm32f4xx_hal_i2s_ex.c **** /**
 821:Drivers/STM32F4xx_HAL_Driver/Src/stm32f4xx_hal_i2s_ex.c ****   * @brief  Tx and Rx Transfer half completed callback
 822:Drivers/STM32F4xx_HAL_Driver/Src/stm32f4xx_hal_i2s_ex.c ****   * @param  hi2s I2S handle
 823:Drivers/STM32F4xx_HAL_Driver/Src/stm32f4xx_hal_i2s_ex.c ****   * @retval None
 824:Drivers/STM32F4xx_HAL_Driver/Src/stm32f4xx_hal_i2s_ex.c ****   */
 825:Drivers/STM32F4xx_HAL_Driver/Src/stm32f4xx_hal_i2s_ex.c **** __weak void HAL_I2SEx_TxRxHalfCpltCallback(I2S_HandleTypeDef *hi2s)
 826:Drivers/STM32F4xx_HAL_Driver/Src/stm32f4xx_hal_i2s_ex.c **** {
 827:Drivers/STM32F4xx_HAL_Driver/Src/stm32f4xx_hal_i2s_ex.c ****   /* Prevent unused argument(s) compilation warning */
 828:Drivers/STM32F4xx_HAL_Driver/Src/stm32f4xx_hal_i2s_ex.c ****   UNUSED(hi2s);
ARM GAS  /var/folders/sd/sw6_rvdd1xd6sxxq8gkv_lph0000gn/T//cc7sexlg.s 			page 16


 829:Drivers/STM32F4xx_HAL_Driver/Src/stm32f4xx_hal_i2s_ex.c **** 
 830:Drivers/STM32F4xx_HAL_Driver/Src/stm32f4xx_hal_i2s_ex.c ****   /* NOTE : This function Should not be modified, when the callback is needed,
 831:Drivers/STM32F4xx_HAL_Driver/Src/stm32f4xx_hal_i2s_ex.c ****             the HAL_I2SEx_TxRxHalfCpltCallback could be implemented in the user file
 832:Drivers/STM32F4xx_HAL_Driver/Src/stm32f4xx_hal_i2s_ex.c ****    */
 833:Drivers/STM32F4xx_HAL_Driver/Src/stm32f4xx_hal_i2s_ex.c **** }
 834:Drivers/STM32F4xx_HAL_Driver/Src/stm32f4xx_hal_i2s_ex.c **** 
 835:Drivers/STM32F4xx_HAL_Driver/Src/stm32f4xx_hal_i2s_ex.c **** /**
 836:Drivers/STM32F4xx_HAL_Driver/Src/stm32f4xx_hal_i2s_ex.c ****   * @brief  Tx and Rx Transfer completed callback
 837:Drivers/STM32F4xx_HAL_Driver/Src/stm32f4xx_hal_i2s_ex.c ****   * @param  hi2s I2S handle
 838:Drivers/STM32F4xx_HAL_Driver/Src/stm32f4xx_hal_i2s_ex.c ****   * @retval None
 839:Drivers/STM32F4xx_HAL_Driver/Src/stm32f4xx_hal_i2s_ex.c ****   */
 840:Drivers/STM32F4xx_HAL_Driver/Src/stm32f4xx_hal_i2s_ex.c **** __weak void HAL_I2SEx_TxRxCpltCallback(I2S_HandleTypeDef *hi2s)
 841:Drivers/STM32F4xx_HAL_Driver/Src/stm32f4xx_hal_i2s_ex.c **** {
 842:Drivers/STM32F4xx_HAL_Driver/Src/stm32f4xx_hal_i2s_ex.c ****   /* Prevent unused argument(s) compilation warning */
 843:Drivers/STM32F4xx_HAL_Driver/Src/stm32f4xx_hal_i2s_ex.c ****   UNUSED(hi2s);
 844:Drivers/STM32F4xx_HAL_Driver/Src/stm32f4xx_hal_i2s_ex.c **** 
 845:Drivers/STM32F4xx_HAL_Driver/Src/stm32f4xx_hal_i2s_ex.c ****   /* NOTE : This function should not be modified, when the callback is needed,
 846:Drivers/STM32F4xx_HAL_Driver/Src/stm32f4xx_hal_i2s_ex.c ****             the HAL_I2SEx_TxRxCpltCallback could be implemented in the user file
 847:Drivers/STM32F4xx_HAL_Driver/Src/stm32f4xx_hal_i2s_ex.c ****    */
 848:Drivers/STM32F4xx_HAL_Driver/Src/stm32f4xx_hal_i2s_ex.c **** }
 849:Drivers/STM32F4xx_HAL_Driver/Src/stm32f4xx_hal_i2s_ex.c **** 
 850:Drivers/STM32F4xx_HAL_Driver/Src/stm32f4xx_hal_i2s_ex.c **** /**
 851:Drivers/STM32F4xx_HAL_Driver/Src/stm32f4xx_hal_i2s_ex.c ****   * @}
 852:Drivers/STM32F4xx_HAL_Driver/Src/stm32f4xx_hal_i2s_ex.c ****   */
 853:Drivers/STM32F4xx_HAL_Driver/Src/stm32f4xx_hal_i2s_ex.c **** 
 854:Drivers/STM32F4xx_HAL_Driver/Src/stm32f4xx_hal_i2s_ex.c **** /**
 855:Drivers/STM32F4xx_HAL_Driver/Src/stm32f4xx_hal_i2s_ex.c ****   * @}
 856:Drivers/STM32F4xx_HAL_Driver/Src/stm32f4xx_hal_i2s_ex.c ****   */
 857:Drivers/STM32F4xx_HAL_Driver/Src/stm32f4xx_hal_i2s_ex.c **** 
 858:Drivers/STM32F4xx_HAL_Driver/Src/stm32f4xx_hal_i2s_ex.c **** /** @addtogroup I2SEx_Private_Functions I2S Extended Private Functions
 859:Drivers/STM32F4xx_HAL_Driver/Src/stm32f4xx_hal_i2s_ex.c ****   * @{
 860:Drivers/STM32F4xx_HAL_Driver/Src/stm32f4xx_hal_i2s_ex.c ****   */
 861:Drivers/STM32F4xx_HAL_Driver/Src/stm32f4xx_hal_i2s_ex.c **** 
 862:Drivers/STM32F4xx_HAL_Driver/Src/stm32f4xx_hal_i2s_ex.c **** /**
 863:Drivers/STM32F4xx_HAL_Driver/Src/stm32f4xx_hal_i2s_ex.c ****   * @brief  DMA I2S transmit receive process half complete callback
 864:Drivers/STM32F4xx_HAL_Driver/Src/stm32f4xx_hal_i2s_ex.c ****   * @param  hdma pointer to a DMA_HandleTypeDef structure that contains
 865:Drivers/STM32F4xx_HAL_Driver/Src/stm32f4xx_hal_i2s_ex.c ****   *               the configuration information for the specified DMA module.
 866:Drivers/STM32F4xx_HAL_Driver/Src/stm32f4xx_hal_i2s_ex.c ****   * @retval None
 867:Drivers/STM32F4xx_HAL_Driver/Src/stm32f4xx_hal_i2s_ex.c ****   */
 868:Drivers/STM32F4xx_HAL_Driver/Src/stm32f4xx_hal_i2s_ex.c **** static void I2SEx_TxRxDMAHalfCplt(DMA_HandleTypeDef *hdma)
 869:Drivers/STM32F4xx_HAL_Driver/Src/stm32f4xx_hal_i2s_ex.c **** {
 870:Drivers/STM32F4xx_HAL_Driver/Src/stm32f4xx_hal_i2s_ex.c ****   I2S_HandleTypeDef *hi2s = (I2S_HandleTypeDef *)((DMA_HandleTypeDef *)hdma)->Parent;
 871:Drivers/STM32F4xx_HAL_Driver/Src/stm32f4xx_hal_i2s_ex.c **** 
 872:Drivers/STM32F4xx_HAL_Driver/Src/stm32f4xx_hal_i2s_ex.c ****   /* Call user TxRx Half complete callback */
 873:Drivers/STM32F4xx_HAL_Driver/Src/stm32f4xx_hal_i2s_ex.c **** #if (USE_HAL_I2S_REGISTER_CALLBACKS == 1U)
 874:Drivers/STM32F4xx_HAL_Driver/Src/stm32f4xx_hal_i2s_ex.c ****   hi2s->TxRxHalfCpltCallback(hi2s);
 875:Drivers/STM32F4xx_HAL_Driver/Src/stm32f4xx_hal_i2s_ex.c **** #else
 876:Drivers/STM32F4xx_HAL_Driver/Src/stm32f4xx_hal_i2s_ex.c ****   HAL_I2SEx_TxRxHalfCpltCallback(hi2s);
 877:Drivers/STM32F4xx_HAL_Driver/Src/stm32f4xx_hal_i2s_ex.c **** #endif /* USE_HAL_I2S_REGISTER_CALLBACKS */
 878:Drivers/STM32F4xx_HAL_Driver/Src/stm32f4xx_hal_i2s_ex.c **** }
 879:Drivers/STM32F4xx_HAL_Driver/Src/stm32f4xx_hal_i2s_ex.c **** 
 880:Drivers/STM32F4xx_HAL_Driver/Src/stm32f4xx_hal_i2s_ex.c **** /**
 881:Drivers/STM32F4xx_HAL_Driver/Src/stm32f4xx_hal_i2s_ex.c ****   * @brief  DMA I2S transmit receive process complete callback
 882:Drivers/STM32F4xx_HAL_Driver/Src/stm32f4xx_hal_i2s_ex.c ****   * @param  hdma pointer to a DMA_HandleTypeDef structure that contains
 883:Drivers/STM32F4xx_HAL_Driver/Src/stm32f4xx_hal_i2s_ex.c ****   *               the configuration information for the specified DMA module.
 884:Drivers/STM32F4xx_HAL_Driver/Src/stm32f4xx_hal_i2s_ex.c ****   * @retval None
 885:Drivers/STM32F4xx_HAL_Driver/Src/stm32f4xx_hal_i2s_ex.c ****   */
ARM GAS  /var/folders/sd/sw6_rvdd1xd6sxxq8gkv_lph0000gn/T//cc7sexlg.s 			page 17


 886:Drivers/STM32F4xx_HAL_Driver/Src/stm32f4xx_hal_i2s_ex.c **** static void I2SEx_TxRxDMACplt(DMA_HandleTypeDef *hdma)
 887:Drivers/STM32F4xx_HAL_Driver/Src/stm32f4xx_hal_i2s_ex.c **** {
 888:Drivers/STM32F4xx_HAL_Driver/Src/stm32f4xx_hal_i2s_ex.c ****   I2S_HandleTypeDef *hi2s = (I2S_HandleTypeDef *)((DMA_HandleTypeDef *)hdma)->Parent;
 889:Drivers/STM32F4xx_HAL_Driver/Src/stm32f4xx_hal_i2s_ex.c **** 
 890:Drivers/STM32F4xx_HAL_Driver/Src/stm32f4xx_hal_i2s_ex.c ****   /* If DMA is configured in DMA_NORMAL mode */
 891:Drivers/STM32F4xx_HAL_Driver/Src/stm32f4xx_hal_i2s_ex.c ****   if (hdma->Init.Mode == DMA_NORMAL)
 892:Drivers/STM32F4xx_HAL_Driver/Src/stm32f4xx_hal_i2s_ex.c ****   {
 893:Drivers/STM32F4xx_HAL_Driver/Src/stm32f4xx_hal_i2s_ex.c ****     if (((hi2s->Instance->I2SCFGR & SPI_I2SCFGR_I2SCFG) == I2S_MODE_MASTER_TX) || \
 894:Drivers/STM32F4xx_HAL_Driver/Src/stm32f4xx_hal_i2s_ex.c ****         ((hi2s->Instance->I2SCFGR & SPI_I2SCFGR_I2SCFG) == I2S_MODE_SLAVE_TX))
 895:Drivers/STM32F4xx_HAL_Driver/Src/stm32f4xx_hal_i2s_ex.c ****     /* Disable Tx & Rx DMA Requests */
 896:Drivers/STM32F4xx_HAL_Driver/Src/stm32f4xx_hal_i2s_ex.c ****     {
 897:Drivers/STM32F4xx_HAL_Driver/Src/stm32f4xx_hal_i2s_ex.c ****       CLEAR_BIT(I2SxEXT(hi2s->Instance)->CR2, SPI_CR2_RXDMAEN);
 898:Drivers/STM32F4xx_HAL_Driver/Src/stm32f4xx_hal_i2s_ex.c ****       CLEAR_BIT(hi2s->Instance->CR2, SPI_CR2_TXDMAEN);
 899:Drivers/STM32F4xx_HAL_Driver/Src/stm32f4xx_hal_i2s_ex.c ****     }
 900:Drivers/STM32F4xx_HAL_Driver/Src/stm32f4xx_hal_i2s_ex.c ****     else
 901:Drivers/STM32F4xx_HAL_Driver/Src/stm32f4xx_hal_i2s_ex.c ****     {
 902:Drivers/STM32F4xx_HAL_Driver/Src/stm32f4xx_hal_i2s_ex.c ****       CLEAR_BIT(hi2s->Instance->CR2, SPI_CR2_RXDMAEN);
 903:Drivers/STM32F4xx_HAL_Driver/Src/stm32f4xx_hal_i2s_ex.c ****       CLEAR_BIT(I2SxEXT(hi2s->Instance)->CR2, SPI_CR2_TXDMAEN);
 904:Drivers/STM32F4xx_HAL_Driver/Src/stm32f4xx_hal_i2s_ex.c ****     }
 905:Drivers/STM32F4xx_HAL_Driver/Src/stm32f4xx_hal_i2s_ex.c **** 
 906:Drivers/STM32F4xx_HAL_Driver/Src/stm32f4xx_hal_i2s_ex.c ****     hi2s->RxXferCount = 0U;
 907:Drivers/STM32F4xx_HAL_Driver/Src/stm32f4xx_hal_i2s_ex.c ****     hi2s->TxXferCount = 0U;
 908:Drivers/STM32F4xx_HAL_Driver/Src/stm32f4xx_hal_i2s_ex.c **** 
 909:Drivers/STM32F4xx_HAL_Driver/Src/stm32f4xx_hal_i2s_ex.c ****     hi2s->State = HAL_I2S_STATE_READY;
 910:Drivers/STM32F4xx_HAL_Driver/Src/stm32f4xx_hal_i2s_ex.c ****   }
 911:Drivers/STM32F4xx_HAL_Driver/Src/stm32f4xx_hal_i2s_ex.c **** 
 912:Drivers/STM32F4xx_HAL_Driver/Src/stm32f4xx_hal_i2s_ex.c ****   /* Call user TxRx complete callback */
 913:Drivers/STM32F4xx_HAL_Driver/Src/stm32f4xx_hal_i2s_ex.c **** #if (USE_HAL_I2S_REGISTER_CALLBACKS == 1U)
 914:Drivers/STM32F4xx_HAL_Driver/Src/stm32f4xx_hal_i2s_ex.c ****   hi2s->TxRxCpltCallback(hi2s);
 915:Drivers/STM32F4xx_HAL_Driver/Src/stm32f4xx_hal_i2s_ex.c **** #else
 916:Drivers/STM32F4xx_HAL_Driver/Src/stm32f4xx_hal_i2s_ex.c ****   HAL_I2SEx_TxRxCpltCallback(hi2s);
 917:Drivers/STM32F4xx_HAL_Driver/Src/stm32f4xx_hal_i2s_ex.c **** #endif /* USE_HAL_I2S_REGISTER_CALLBACKS */
 918:Drivers/STM32F4xx_HAL_Driver/Src/stm32f4xx_hal_i2s_ex.c **** }
 919:Drivers/STM32F4xx_HAL_Driver/Src/stm32f4xx_hal_i2s_ex.c **** 
 920:Drivers/STM32F4xx_HAL_Driver/Src/stm32f4xx_hal_i2s_ex.c **** /**
 921:Drivers/STM32F4xx_HAL_Driver/Src/stm32f4xx_hal_i2s_ex.c ****   * @brief  DMA I2S communication error callback
 922:Drivers/STM32F4xx_HAL_Driver/Src/stm32f4xx_hal_i2s_ex.c ****   * @param  hdma DMA handle
 923:Drivers/STM32F4xx_HAL_Driver/Src/stm32f4xx_hal_i2s_ex.c ****   * @retval None
 924:Drivers/STM32F4xx_HAL_Driver/Src/stm32f4xx_hal_i2s_ex.c ****   */
 925:Drivers/STM32F4xx_HAL_Driver/Src/stm32f4xx_hal_i2s_ex.c **** static void I2SEx_TxRxDMAError(DMA_HandleTypeDef *hdma)
 926:Drivers/STM32F4xx_HAL_Driver/Src/stm32f4xx_hal_i2s_ex.c **** {
 927:Drivers/STM32F4xx_HAL_Driver/Src/stm32f4xx_hal_i2s_ex.c ****   I2S_HandleTypeDef *hi2s = (I2S_HandleTypeDef *)((DMA_HandleTypeDef *)hdma)->Parent;
 928:Drivers/STM32F4xx_HAL_Driver/Src/stm32f4xx_hal_i2s_ex.c **** 
 929:Drivers/STM32F4xx_HAL_Driver/Src/stm32f4xx_hal_i2s_ex.c ****   /* Disable Rx and Tx DMA Request */
 930:Drivers/STM32F4xx_HAL_Driver/Src/stm32f4xx_hal_i2s_ex.c ****   CLEAR_BIT(hi2s->Instance->CR2, (SPI_CR2_RXDMAEN | SPI_CR2_TXDMAEN));
 931:Drivers/STM32F4xx_HAL_Driver/Src/stm32f4xx_hal_i2s_ex.c ****   CLEAR_BIT(I2SxEXT(hi2s->Instance)->CR2, (SPI_CR2_RXDMAEN | SPI_CR2_TXDMAEN));
 932:Drivers/STM32F4xx_HAL_Driver/Src/stm32f4xx_hal_i2s_ex.c **** 
 933:Drivers/STM32F4xx_HAL_Driver/Src/stm32f4xx_hal_i2s_ex.c ****   hi2s->TxXferCount = 0U;
 934:Drivers/STM32F4xx_HAL_Driver/Src/stm32f4xx_hal_i2s_ex.c ****   hi2s->RxXferCount = 0U;
 935:Drivers/STM32F4xx_HAL_Driver/Src/stm32f4xx_hal_i2s_ex.c **** 
 936:Drivers/STM32F4xx_HAL_Driver/Src/stm32f4xx_hal_i2s_ex.c ****   hi2s->State = HAL_I2S_STATE_READY;
 937:Drivers/STM32F4xx_HAL_Driver/Src/stm32f4xx_hal_i2s_ex.c **** 
 938:Drivers/STM32F4xx_HAL_Driver/Src/stm32f4xx_hal_i2s_ex.c ****   /* Set the error code and execute error callback*/
 939:Drivers/STM32F4xx_HAL_Driver/Src/stm32f4xx_hal_i2s_ex.c ****   SET_BIT(hi2s->ErrorCode, HAL_I2S_ERROR_DMA);
 940:Drivers/STM32F4xx_HAL_Driver/Src/stm32f4xx_hal_i2s_ex.c ****   /* Call user error callback */
 941:Drivers/STM32F4xx_HAL_Driver/Src/stm32f4xx_hal_i2s_ex.c **** #if (USE_HAL_I2S_REGISTER_CALLBACKS == 1U)
 942:Drivers/STM32F4xx_HAL_Driver/Src/stm32f4xx_hal_i2s_ex.c ****   hi2s->ErrorCallback(hi2s);
ARM GAS  /var/folders/sd/sw6_rvdd1xd6sxxq8gkv_lph0000gn/T//cc7sexlg.s 			page 18


 943:Drivers/STM32F4xx_HAL_Driver/Src/stm32f4xx_hal_i2s_ex.c **** #else
 944:Drivers/STM32F4xx_HAL_Driver/Src/stm32f4xx_hal_i2s_ex.c ****   HAL_I2S_ErrorCallback(hi2s);
 945:Drivers/STM32F4xx_HAL_Driver/Src/stm32f4xx_hal_i2s_ex.c **** #endif /* USE_HAL_I2S_REGISTER_CALLBACKS */
 946:Drivers/STM32F4xx_HAL_Driver/Src/stm32f4xx_hal_i2s_ex.c **** }
 947:Drivers/STM32F4xx_HAL_Driver/Src/stm32f4xx_hal_i2s_ex.c **** 
 948:Drivers/STM32F4xx_HAL_Driver/Src/stm32f4xx_hal_i2s_ex.c **** /**
 949:Drivers/STM32F4xx_HAL_Driver/Src/stm32f4xx_hal_i2s_ex.c ****   * @brief  I2S Full-Duplex IT handler transmit function
 950:Drivers/STM32F4xx_HAL_Driver/Src/stm32f4xx_hal_i2s_ex.c ****   * @param  hi2s I2S handle
 951:Drivers/STM32F4xx_HAL_Driver/Src/stm32f4xx_hal_i2s_ex.c ****   * @retval None
 952:Drivers/STM32F4xx_HAL_Driver/Src/stm32f4xx_hal_i2s_ex.c ****   */
 953:Drivers/STM32F4xx_HAL_Driver/Src/stm32f4xx_hal_i2s_ex.c **** static void I2SEx_TxISR_I2S(I2S_HandleTypeDef *hi2s)
 954:Drivers/STM32F4xx_HAL_Driver/Src/stm32f4xx_hal_i2s_ex.c **** {
 955:Drivers/STM32F4xx_HAL_Driver/Src/stm32f4xx_hal_i2s_ex.c ****   /* Write Data on DR register */
 956:Drivers/STM32F4xx_HAL_Driver/Src/stm32f4xx_hal_i2s_ex.c ****   hi2s->Instance->DR = (*hi2s->pTxBuffPtr++);
 957:Drivers/STM32F4xx_HAL_Driver/Src/stm32f4xx_hal_i2s_ex.c ****   hi2s->TxXferCount--;
 958:Drivers/STM32F4xx_HAL_Driver/Src/stm32f4xx_hal_i2s_ex.c **** 
 959:Drivers/STM32F4xx_HAL_Driver/Src/stm32f4xx_hal_i2s_ex.c ****   if (hi2s->TxXferCount == 0U)
 960:Drivers/STM32F4xx_HAL_Driver/Src/stm32f4xx_hal_i2s_ex.c ****   {
 961:Drivers/STM32F4xx_HAL_Driver/Src/stm32f4xx_hal_i2s_ex.c ****     /* Disable TXE and ERR interrupt */
 962:Drivers/STM32F4xx_HAL_Driver/Src/stm32f4xx_hal_i2s_ex.c ****     __HAL_I2S_DISABLE_IT(hi2s, (I2S_IT_TXE | I2S_IT_ERR));
 963:Drivers/STM32F4xx_HAL_Driver/Src/stm32f4xx_hal_i2s_ex.c **** 
 964:Drivers/STM32F4xx_HAL_Driver/Src/stm32f4xx_hal_i2s_ex.c ****     if (hi2s->RxXferCount == 0U)
 965:Drivers/STM32F4xx_HAL_Driver/Src/stm32f4xx_hal_i2s_ex.c ****     {
 966:Drivers/STM32F4xx_HAL_Driver/Src/stm32f4xx_hal_i2s_ex.c ****       hi2s->State = HAL_I2S_STATE_READY;
 967:Drivers/STM32F4xx_HAL_Driver/Src/stm32f4xx_hal_i2s_ex.c ****       /* Call user TxRx complete callback */
 968:Drivers/STM32F4xx_HAL_Driver/Src/stm32f4xx_hal_i2s_ex.c **** #if (USE_HAL_I2S_REGISTER_CALLBACKS == 1U)
 969:Drivers/STM32F4xx_HAL_Driver/Src/stm32f4xx_hal_i2s_ex.c ****       hi2s->TxRxCpltCallback(hi2s);
 970:Drivers/STM32F4xx_HAL_Driver/Src/stm32f4xx_hal_i2s_ex.c **** #else
 971:Drivers/STM32F4xx_HAL_Driver/Src/stm32f4xx_hal_i2s_ex.c ****       HAL_I2SEx_TxRxCpltCallback(hi2s);
 972:Drivers/STM32F4xx_HAL_Driver/Src/stm32f4xx_hal_i2s_ex.c **** #endif /* USE_HAL_I2S_REGISTER_CALLBACKS */
 973:Drivers/STM32F4xx_HAL_Driver/Src/stm32f4xx_hal_i2s_ex.c ****     }
 974:Drivers/STM32F4xx_HAL_Driver/Src/stm32f4xx_hal_i2s_ex.c ****   }
 975:Drivers/STM32F4xx_HAL_Driver/Src/stm32f4xx_hal_i2s_ex.c **** }
 976:Drivers/STM32F4xx_HAL_Driver/Src/stm32f4xx_hal_i2s_ex.c **** 
 977:Drivers/STM32F4xx_HAL_Driver/Src/stm32f4xx_hal_i2s_ex.c **** /**
 978:Drivers/STM32F4xx_HAL_Driver/Src/stm32f4xx_hal_i2s_ex.c ****   * @brief  I2SExt Full-Duplex IT handler transmit function
 979:Drivers/STM32F4xx_HAL_Driver/Src/stm32f4xx_hal_i2s_ex.c ****   * @param  hi2s I2S handle
 980:Drivers/STM32F4xx_HAL_Driver/Src/stm32f4xx_hal_i2s_ex.c ****   * @retval None
 981:Drivers/STM32F4xx_HAL_Driver/Src/stm32f4xx_hal_i2s_ex.c ****   */
 982:Drivers/STM32F4xx_HAL_Driver/Src/stm32f4xx_hal_i2s_ex.c **** static void I2SEx_TxISR_I2SExt(I2S_HandleTypeDef *hi2s)
 983:Drivers/STM32F4xx_HAL_Driver/Src/stm32f4xx_hal_i2s_ex.c **** {
 984:Drivers/STM32F4xx_HAL_Driver/Src/stm32f4xx_hal_i2s_ex.c ****   /* Write Data on DR register */
 985:Drivers/STM32F4xx_HAL_Driver/Src/stm32f4xx_hal_i2s_ex.c ****   I2SxEXT(hi2s->Instance)->DR = (*hi2s->pTxBuffPtr++);
 986:Drivers/STM32F4xx_HAL_Driver/Src/stm32f4xx_hal_i2s_ex.c ****   hi2s->TxXferCount--;
 987:Drivers/STM32F4xx_HAL_Driver/Src/stm32f4xx_hal_i2s_ex.c **** 
 988:Drivers/STM32F4xx_HAL_Driver/Src/stm32f4xx_hal_i2s_ex.c ****   if (hi2s->TxXferCount == 0U)
 989:Drivers/STM32F4xx_HAL_Driver/Src/stm32f4xx_hal_i2s_ex.c ****   {
 990:Drivers/STM32F4xx_HAL_Driver/Src/stm32f4xx_hal_i2s_ex.c ****     /* Disable I2Sext TXE and ERR interrupt */
 991:Drivers/STM32F4xx_HAL_Driver/Src/stm32f4xx_hal_i2s_ex.c ****     __HAL_I2SEXT_DISABLE_IT(hi2s, (I2S_IT_TXE | I2S_IT_ERR));
 992:Drivers/STM32F4xx_HAL_Driver/Src/stm32f4xx_hal_i2s_ex.c **** 
 993:Drivers/STM32F4xx_HAL_Driver/Src/stm32f4xx_hal_i2s_ex.c ****     if (hi2s->RxXferCount == 0U)
 994:Drivers/STM32F4xx_HAL_Driver/Src/stm32f4xx_hal_i2s_ex.c ****     {
 995:Drivers/STM32F4xx_HAL_Driver/Src/stm32f4xx_hal_i2s_ex.c ****       hi2s->State = HAL_I2S_STATE_READY;
 996:Drivers/STM32F4xx_HAL_Driver/Src/stm32f4xx_hal_i2s_ex.c ****       /* Call user TxRx complete callback */
 997:Drivers/STM32F4xx_HAL_Driver/Src/stm32f4xx_hal_i2s_ex.c **** #if (USE_HAL_I2S_REGISTER_CALLBACKS == 1U)
 998:Drivers/STM32F4xx_HAL_Driver/Src/stm32f4xx_hal_i2s_ex.c ****       hi2s->TxRxCpltCallback(hi2s);
 999:Drivers/STM32F4xx_HAL_Driver/Src/stm32f4xx_hal_i2s_ex.c **** #else
ARM GAS  /var/folders/sd/sw6_rvdd1xd6sxxq8gkv_lph0000gn/T//cc7sexlg.s 			page 19


1000:Drivers/STM32F4xx_HAL_Driver/Src/stm32f4xx_hal_i2s_ex.c ****       HAL_I2SEx_TxRxCpltCallback(hi2s);
1001:Drivers/STM32F4xx_HAL_Driver/Src/stm32f4xx_hal_i2s_ex.c **** #endif /* USE_HAL_I2S_REGISTER_CALLBACKS */
1002:Drivers/STM32F4xx_HAL_Driver/Src/stm32f4xx_hal_i2s_ex.c ****     }
1003:Drivers/STM32F4xx_HAL_Driver/Src/stm32f4xx_hal_i2s_ex.c ****   }
1004:Drivers/STM32F4xx_HAL_Driver/Src/stm32f4xx_hal_i2s_ex.c **** }
1005:Drivers/STM32F4xx_HAL_Driver/Src/stm32f4xx_hal_i2s_ex.c **** 
1006:Drivers/STM32F4xx_HAL_Driver/Src/stm32f4xx_hal_i2s_ex.c **** /**
1007:Drivers/STM32F4xx_HAL_Driver/Src/stm32f4xx_hal_i2s_ex.c ****   * @brief  I2S Full-Duplex IT handler receive function
1008:Drivers/STM32F4xx_HAL_Driver/Src/stm32f4xx_hal_i2s_ex.c ****   * @param  hi2s I2S handle
1009:Drivers/STM32F4xx_HAL_Driver/Src/stm32f4xx_hal_i2s_ex.c ****   * @retval None
1010:Drivers/STM32F4xx_HAL_Driver/Src/stm32f4xx_hal_i2s_ex.c ****   */
1011:Drivers/STM32F4xx_HAL_Driver/Src/stm32f4xx_hal_i2s_ex.c **** static void I2SEx_RxISR_I2S(I2S_HandleTypeDef *hi2s)
1012:Drivers/STM32F4xx_HAL_Driver/Src/stm32f4xx_hal_i2s_ex.c **** {
1013:Drivers/STM32F4xx_HAL_Driver/Src/stm32f4xx_hal_i2s_ex.c ****   /* Read Data from DR register */
1014:Drivers/STM32F4xx_HAL_Driver/Src/stm32f4xx_hal_i2s_ex.c ****   (*hi2s->pRxBuffPtr++) = hi2s->Instance->DR;
1015:Drivers/STM32F4xx_HAL_Driver/Src/stm32f4xx_hal_i2s_ex.c ****   hi2s->RxXferCount--;
1016:Drivers/STM32F4xx_HAL_Driver/Src/stm32f4xx_hal_i2s_ex.c **** 
1017:Drivers/STM32F4xx_HAL_Driver/Src/stm32f4xx_hal_i2s_ex.c ****   if (hi2s->RxXferCount == 0U)
1018:Drivers/STM32F4xx_HAL_Driver/Src/stm32f4xx_hal_i2s_ex.c ****   {
1019:Drivers/STM32F4xx_HAL_Driver/Src/stm32f4xx_hal_i2s_ex.c ****     /* Disable RXNE and ERR interrupt */
1020:Drivers/STM32F4xx_HAL_Driver/Src/stm32f4xx_hal_i2s_ex.c ****     __HAL_I2S_DISABLE_IT(hi2s, (I2S_IT_RXNE | I2S_IT_ERR));
1021:Drivers/STM32F4xx_HAL_Driver/Src/stm32f4xx_hal_i2s_ex.c **** 
1022:Drivers/STM32F4xx_HAL_Driver/Src/stm32f4xx_hal_i2s_ex.c ****     if (hi2s->TxXferCount == 0U)
1023:Drivers/STM32F4xx_HAL_Driver/Src/stm32f4xx_hal_i2s_ex.c ****     {
1024:Drivers/STM32F4xx_HAL_Driver/Src/stm32f4xx_hal_i2s_ex.c ****       hi2s->State = HAL_I2S_STATE_READY;
1025:Drivers/STM32F4xx_HAL_Driver/Src/stm32f4xx_hal_i2s_ex.c ****       /* Call user TxRx complete callback */
1026:Drivers/STM32F4xx_HAL_Driver/Src/stm32f4xx_hal_i2s_ex.c **** #if (USE_HAL_I2S_REGISTER_CALLBACKS == 1U)
1027:Drivers/STM32F4xx_HAL_Driver/Src/stm32f4xx_hal_i2s_ex.c ****       hi2s->TxRxCpltCallback(hi2s);
1028:Drivers/STM32F4xx_HAL_Driver/Src/stm32f4xx_hal_i2s_ex.c **** #else
1029:Drivers/STM32F4xx_HAL_Driver/Src/stm32f4xx_hal_i2s_ex.c ****       HAL_I2SEx_TxRxCpltCallback(hi2s);
1030:Drivers/STM32F4xx_HAL_Driver/Src/stm32f4xx_hal_i2s_ex.c **** #endif /* USE_HAL_I2S_REGISTER_CALLBACKS */
1031:Drivers/STM32F4xx_HAL_Driver/Src/stm32f4xx_hal_i2s_ex.c ****     }
1032:Drivers/STM32F4xx_HAL_Driver/Src/stm32f4xx_hal_i2s_ex.c ****   }
1033:Drivers/STM32F4xx_HAL_Driver/Src/stm32f4xx_hal_i2s_ex.c **** }
1034:Drivers/STM32F4xx_HAL_Driver/Src/stm32f4xx_hal_i2s_ex.c **** 
1035:Drivers/STM32F4xx_HAL_Driver/Src/stm32f4xx_hal_i2s_ex.c **** /**
1036:Drivers/STM32F4xx_HAL_Driver/Src/stm32f4xx_hal_i2s_ex.c ****   * @brief  I2SExt Full-Duplex IT handler receive function
1037:Drivers/STM32F4xx_HAL_Driver/Src/stm32f4xx_hal_i2s_ex.c ****   * @param  hi2s I2S handle
1038:Drivers/STM32F4xx_HAL_Driver/Src/stm32f4xx_hal_i2s_ex.c ****   * @retval None
1039:Drivers/STM32F4xx_HAL_Driver/Src/stm32f4xx_hal_i2s_ex.c ****   */
1040:Drivers/STM32F4xx_HAL_Driver/Src/stm32f4xx_hal_i2s_ex.c **** static void I2SEx_RxISR_I2SExt(I2S_HandleTypeDef *hi2s)
1041:Drivers/STM32F4xx_HAL_Driver/Src/stm32f4xx_hal_i2s_ex.c **** {
1042:Drivers/STM32F4xx_HAL_Driver/Src/stm32f4xx_hal_i2s_ex.c ****   /* Read Data from DR register */
1043:Drivers/STM32F4xx_HAL_Driver/Src/stm32f4xx_hal_i2s_ex.c ****   (*hi2s->pRxBuffPtr++) = I2SxEXT(hi2s->Instance)->DR;
1044:Drivers/STM32F4xx_HAL_Driver/Src/stm32f4xx_hal_i2s_ex.c ****   hi2s->RxXferCount--;
1045:Drivers/STM32F4xx_HAL_Driver/Src/stm32f4xx_hal_i2s_ex.c **** 
1046:Drivers/STM32F4xx_HAL_Driver/Src/stm32f4xx_hal_i2s_ex.c ****   if (hi2s->RxXferCount == 0U)
1047:Drivers/STM32F4xx_HAL_Driver/Src/stm32f4xx_hal_i2s_ex.c ****   {
1048:Drivers/STM32F4xx_HAL_Driver/Src/stm32f4xx_hal_i2s_ex.c ****     /* Disable I2Sext RXNE and ERR interrupt */
1049:Drivers/STM32F4xx_HAL_Driver/Src/stm32f4xx_hal_i2s_ex.c ****     __HAL_I2SEXT_DISABLE_IT(hi2s, (I2S_IT_RXNE | I2S_IT_ERR));
1050:Drivers/STM32F4xx_HAL_Driver/Src/stm32f4xx_hal_i2s_ex.c **** 
1051:Drivers/STM32F4xx_HAL_Driver/Src/stm32f4xx_hal_i2s_ex.c ****     if (hi2s->TxXferCount == 0U)
1052:Drivers/STM32F4xx_HAL_Driver/Src/stm32f4xx_hal_i2s_ex.c ****     {
1053:Drivers/STM32F4xx_HAL_Driver/Src/stm32f4xx_hal_i2s_ex.c ****       hi2s->State = HAL_I2S_STATE_READY;
1054:Drivers/STM32F4xx_HAL_Driver/Src/stm32f4xx_hal_i2s_ex.c ****       /* Call user TxRx complete callback */
1055:Drivers/STM32F4xx_HAL_Driver/Src/stm32f4xx_hal_i2s_ex.c **** #if (USE_HAL_I2S_REGISTER_CALLBACKS == 1U)
1056:Drivers/STM32F4xx_HAL_Driver/Src/stm32f4xx_hal_i2s_ex.c ****       hi2s->TxRxCpltCallback(hi2s);
ARM GAS  /var/folders/sd/sw6_rvdd1xd6sxxq8gkv_lph0000gn/T//cc7sexlg.s 			page 20


1057:Drivers/STM32F4xx_HAL_Driver/Src/stm32f4xx_hal_i2s_ex.c **** #else
1058:Drivers/STM32F4xx_HAL_Driver/Src/stm32f4xx_hal_i2s_ex.c ****       HAL_I2SEx_TxRxCpltCallback(hi2s);
1059:Drivers/STM32F4xx_HAL_Driver/Src/stm32f4xx_hal_i2s_ex.c **** #endif /* USE_HAL_I2S_REGISTER_CALLBACKS */
1060:Drivers/STM32F4xx_HAL_Driver/Src/stm32f4xx_hal_i2s_ex.c ****     }
1061:Drivers/STM32F4xx_HAL_Driver/Src/stm32f4xx_hal_i2s_ex.c ****   }
1062:Drivers/STM32F4xx_HAL_Driver/Src/stm32f4xx_hal_i2s_ex.c **** }
1063:Drivers/STM32F4xx_HAL_Driver/Src/stm32f4xx_hal_i2s_ex.c **** 
1064:Drivers/STM32F4xx_HAL_Driver/Src/stm32f4xx_hal_i2s_ex.c **** /**
1065:Drivers/STM32F4xx_HAL_Driver/Src/stm32f4xx_hal_i2s_ex.c ****   * @brief This function handles I2S Communication Timeout.
1066:Drivers/STM32F4xx_HAL_Driver/Src/stm32f4xx_hal_i2s_ex.c ****   * @param hi2s I2S handle
1067:Drivers/STM32F4xx_HAL_Driver/Src/stm32f4xx_hal_i2s_ex.c ****   * @param Flag Flag checked
1068:Drivers/STM32F4xx_HAL_Driver/Src/stm32f4xx_hal_i2s_ex.c ****   * @param State Value of the flag expected
1069:Drivers/STM32F4xx_HAL_Driver/Src/stm32f4xx_hal_i2s_ex.c ****   * @param Timeout Duration of the timeout
1070:Drivers/STM32F4xx_HAL_Driver/Src/stm32f4xx_hal_i2s_ex.c ****   * @param i2sUsed I2S instance reference
1071:Drivers/STM32F4xx_HAL_Driver/Src/stm32f4xx_hal_i2s_ex.c ****   * @retval HAL status
1072:Drivers/STM32F4xx_HAL_Driver/Src/stm32f4xx_hal_i2s_ex.c ****   */
1073:Drivers/STM32F4xx_HAL_Driver/Src/stm32f4xx_hal_i2s_ex.c **** static HAL_StatusTypeDef I2SEx_FullDuplexWaitFlagStateUntilTimeout(I2S_HandleTypeDef *hi2s,
1074:Drivers/STM32F4xx_HAL_Driver/Src/stm32f4xx_hal_i2s_ex.c ****                                                                    uint32_t Flag,
1075:Drivers/STM32F4xx_HAL_Driver/Src/stm32f4xx_hal_i2s_ex.c ****                                                                    uint32_t State,
1076:Drivers/STM32F4xx_HAL_Driver/Src/stm32f4xx_hal_i2s_ex.c ****                                                                    uint32_t Timeout,
1077:Drivers/STM32F4xx_HAL_Driver/Src/stm32f4xx_hal_i2s_ex.c ****                                                                    I2S_UseTypeDef i2sUsed)
1078:Drivers/STM32F4xx_HAL_Driver/Src/stm32f4xx_hal_i2s_ex.c **** {
  29              		.loc 1 1078 1 view -0
  30              		.cfi_startproc
  31              		@ args = 4, pretend = 0, frame = 0
  32              		@ frame_needed = 0, uses_anonymous_args = 0
  33              		.loc 1 1078 1 is_stmt 0 view .LVU1
  34 0000 2DE9F843 		push	{r3, r4, r5, r6, r7, r8, r9, lr}
  35              	.LCFI0:
  36              		.cfi_def_cfa_offset 32
  37              		.cfi_offset 3, -32
  38              		.cfi_offset 4, -28
  39              		.cfi_offset 5, -24
  40              		.cfi_offset 6, -20
  41              		.cfi_offset 7, -16
  42              		.cfi_offset 8, -12
  43              		.cfi_offset 9, -8
  44              		.cfi_offset 14, -4
  45 0004 0546     		mov	r5, r0
  46 0006 0E46     		mov	r6, r1
  47 0008 1746     		mov	r7, r2
  48 000a 1C46     		mov	r4, r3
  49 000c 9DF82090 		ldrb	r9, [sp, #32]	@ zero_extendqisi2
1079:Drivers/STM32F4xx_HAL_Driver/Src/stm32f4xx_hal_i2s_ex.c ****   uint32_t tickstart = HAL_GetTick();
  50              		.loc 1 1079 3 is_stmt 1 view .LVU2
  51              		.loc 1 1079 24 is_stmt 0 view .LVU3
  52 0010 FFF7FEFF 		bl	HAL_GetTick
  53              	.LVL1:
  54              		.loc 1 1079 24 view .LVU4
  55 0014 8046     		mov	r8, r0
  56              	.LVL2:
1080:Drivers/STM32F4xx_HAL_Driver/Src/stm32f4xx_hal_i2s_ex.c **** 
1081:Drivers/STM32F4xx_HAL_Driver/Src/stm32f4xx_hal_i2s_ex.c ****   if (i2sUsed == I2S_USE_I2S)
  57              		.loc 1 1081 3 is_stmt 1 view .LVU5
  58              		.loc 1 1081 6 is_stmt 0 view .LVU6
  59 0016 B9F1000F 		cmp	r9, #0
  60 001a 15D0     		beq	.L4
ARM GAS  /var/folders/sd/sw6_rvdd1xd6sxxq8gkv_lph0000gn/T//cc7sexlg.s 			page 21


  61 001c 36E0     		b	.L9
  62              	.LVL3:
  63              	.L19:
1082:Drivers/STM32F4xx_HAL_Driver/Src/stm32f4xx_hal_i2s_ex.c ****   {
1083:Drivers/STM32F4xx_HAL_Driver/Src/stm32f4xx_hal_i2s_ex.c ****     /* Wait until flag is reset */
1084:Drivers/STM32F4xx_HAL_Driver/Src/stm32f4xx_hal_i2s_ex.c ****     while (((__HAL_I2S_GET_FLAG(hi2s, Flag)) ? SET : RESET) != State)
1085:Drivers/STM32F4xx_HAL_Driver/Src/stm32f4xx_hal_i2s_ex.c ****     {
1086:Drivers/STM32F4xx_HAL_Driver/Src/stm32f4xx_hal_i2s_ex.c ****       if (Timeout != HAL_MAX_DELAY)
1087:Drivers/STM32F4xx_HAL_Driver/Src/stm32f4xx_hal_i2s_ex.c ****       {
1088:Drivers/STM32F4xx_HAL_Driver/Src/stm32f4xx_hal_i2s_ex.c ****         if ((Timeout == 0U) || ((HAL_GetTick() - tickstart) > Timeout))
  64              		.loc 1 1088 9 is_stmt 1 view .LVU7
  65              		.loc 1 1088 12 is_stmt 0 view .LVU8
  66 001e 2CB1     		cbz	r4, .L5
  67              		.loc 1 1088 34 discriminator 1 view .LVU9
  68 0020 FFF7FEFF 		bl	HAL_GetTick
  69              	.LVL4:
  70              		.loc 1 1088 48 discriminator 1 view .LVU10
  71 0024 A0EB0800 		sub	r0, r0, r8
  72              		.loc 1 1088 29 discriminator 1 view .LVU11
  73 0028 A042     		cmp	r0, r4
  74 002a 0DD9     		bls	.L4
  75              	.L5:
1089:Drivers/STM32F4xx_HAL_Driver/Src/stm32f4xx_hal_i2s_ex.c ****         {
1090:Drivers/STM32F4xx_HAL_Driver/Src/stm32f4xx_hal_i2s_ex.c ****           /* Set the I2S State ready */
1091:Drivers/STM32F4xx_HAL_Driver/Src/stm32f4xx_hal_i2s_ex.c ****           hi2s->State = HAL_I2S_STATE_READY;
  76              		.loc 1 1091 11 is_stmt 1 view .LVU12
  77              		.loc 1 1091 23 is_stmt 0 view .LVU13
  78 002c 0123     		movs	r3, #1
  79 002e 85F84130 		strb	r3, [r5, #65]
1092:Drivers/STM32F4xx_HAL_Driver/Src/stm32f4xx_hal_i2s_ex.c **** 
1093:Drivers/STM32F4xx_HAL_Driver/Src/stm32f4xx_hal_i2s_ex.c ****           /* Process Unlocked */
1094:Drivers/STM32F4xx_HAL_Driver/Src/stm32f4xx_hal_i2s_ex.c ****           __HAL_UNLOCK(hi2s);
  80              		.loc 1 1094 11 is_stmt 1 view .LVU14
  81              		.loc 1 1094 11 view .LVU15
  82 0032 0023     		movs	r3, #0
  83 0034 85F84030 		strb	r3, [r5, #64]
  84              		.loc 1 1094 11 view .LVU16
1095:Drivers/STM32F4xx_HAL_Driver/Src/stm32f4xx_hal_i2s_ex.c **** 
1096:Drivers/STM32F4xx_HAL_Driver/Src/stm32f4xx_hal_i2s_ex.c ****           return HAL_TIMEOUT;
  85              		.loc 1 1096 11 view .LVU17
  86              		.loc 1 1096 18 is_stmt 0 view .LVU18
  87 0038 0320     		movs	r0, #3
  88 003a 0DE0     		b	.L6
  89              	.L20:
1084:Drivers/STM32F4xx_HAL_Driver/Src/stm32f4xx_hal_i2s_ex.c ****     {
  90              		.loc 1 1084 52 view .LVU19
  91 003c 0123     		movs	r3, #1
  92              	.L7:
1084:Drivers/STM32F4xx_HAL_Driver/Src/stm32f4xx_hal_i2s_ex.c ****     {
  93              		.loc 1 1084 11 discriminator 4 view .LVU20
  94 003e BB42     		cmp	r3, r7
  95 0040 09D0     		beq	.L18
1086:Drivers/STM32F4xx_HAL_Driver/Src/stm32f4xx_hal_i2s_ex.c ****       {
  96              		.loc 1 1086 7 is_stmt 1 view .LVU21
1086:Drivers/STM32F4xx_HAL_Driver/Src/stm32f4xx_hal_i2s_ex.c ****       {
  97              		.loc 1 1086 10 is_stmt 0 view .LVU22
  98 0042 B4F1FF3F 		cmp	r4, #-1
ARM GAS  /var/folders/sd/sw6_rvdd1xd6sxxq8gkv_lph0000gn/T//cc7sexlg.s 			page 22


  99 0046 EAD1     		bne	.L19
 100              	.L4:
1084:Drivers/STM32F4xx_HAL_Driver/Src/stm32f4xx_hal_i2s_ex.c ****     {
 101              		.loc 1 1084 11 is_stmt 1 view .LVU23
1084:Drivers/STM32F4xx_HAL_Driver/Src/stm32f4xx_hal_i2s_ex.c ****     {
 102              		.loc 1 1084 14 is_stmt 0 view .LVU24
 103 0048 2B68     		ldr	r3, [r5]
 104 004a 9B68     		ldr	r3, [r3, #8]
1084:Drivers/STM32F4xx_HAL_Driver/Src/stm32f4xx_hal_i2s_ex.c ****     {
 105              		.loc 1 1084 52 view .LVU25
 106 004c 36EA0303 		bics	r3, r6, r3
 107 0050 F4D0     		beq	.L20
 108 0052 0023     		movs	r3, #0
 109 0054 F3E7     		b	.L7
 110              	.L18:
1097:Drivers/STM32F4xx_HAL_Driver/Src/stm32f4xx_hal_i2s_ex.c ****         }
1098:Drivers/STM32F4xx_HAL_Driver/Src/stm32f4xx_hal_i2s_ex.c ****       }
1099:Drivers/STM32F4xx_HAL_Driver/Src/stm32f4xx_hal_i2s_ex.c ****     }
1100:Drivers/STM32F4xx_HAL_Driver/Src/stm32f4xx_hal_i2s_ex.c ****   }
1101:Drivers/STM32F4xx_HAL_Driver/Src/stm32f4xx_hal_i2s_ex.c ****   else /* i2sUsed == I2S_USE_I2SEXT */
1102:Drivers/STM32F4xx_HAL_Driver/Src/stm32f4xx_hal_i2s_ex.c ****   {
1103:Drivers/STM32F4xx_HAL_Driver/Src/stm32f4xx_hal_i2s_ex.c ****     /* Wait until flag is reset */
1104:Drivers/STM32F4xx_HAL_Driver/Src/stm32f4xx_hal_i2s_ex.c ****     while (((__HAL_I2SEXT_GET_FLAG(hi2s, Flag)) ? SET : RESET) != State)
1105:Drivers/STM32F4xx_HAL_Driver/Src/stm32f4xx_hal_i2s_ex.c ****     {
1106:Drivers/STM32F4xx_HAL_Driver/Src/stm32f4xx_hal_i2s_ex.c ****       if (Timeout != HAL_MAX_DELAY)
1107:Drivers/STM32F4xx_HAL_Driver/Src/stm32f4xx_hal_i2s_ex.c ****       {
1108:Drivers/STM32F4xx_HAL_Driver/Src/stm32f4xx_hal_i2s_ex.c ****         if ((Timeout == 0U) || ((HAL_GetTick() - tickstart) > Timeout))
1109:Drivers/STM32F4xx_HAL_Driver/Src/stm32f4xx_hal_i2s_ex.c ****         {
1110:Drivers/STM32F4xx_HAL_Driver/Src/stm32f4xx_hal_i2s_ex.c ****           /* Set the I2S State ready */
1111:Drivers/STM32F4xx_HAL_Driver/Src/stm32f4xx_hal_i2s_ex.c ****           hi2s->State = HAL_I2S_STATE_READY;
1112:Drivers/STM32F4xx_HAL_Driver/Src/stm32f4xx_hal_i2s_ex.c **** 
1113:Drivers/STM32F4xx_HAL_Driver/Src/stm32f4xx_hal_i2s_ex.c ****           /* Process Unlocked */
1114:Drivers/STM32F4xx_HAL_Driver/Src/stm32f4xx_hal_i2s_ex.c ****           __HAL_UNLOCK(hi2s);
1115:Drivers/STM32F4xx_HAL_Driver/Src/stm32f4xx_hal_i2s_ex.c **** 
1116:Drivers/STM32F4xx_HAL_Driver/Src/stm32f4xx_hal_i2s_ex.c ****           return HAL_TIMEOUT;
1117:Drivers/STM32F4xx_HAL_Driver/Src/stm32f4xx_hal_i2s_ex.c ****         }
1118:Drivers/STM32F4xx_HAL_Driver/Src/stm32f4xx_hal_i2s_ex.c ****       }
1119:Drivers/STM32F4xx_HAL_Driver/Src/stm32f4xx_hal_i2s_ex.c ****     }
1120:Drivers/STM32F4xx_HAL_Driver/Src/stm32f4xx_hal_i2s_ex.c ****   }
1121:Drivers/STM32F4xx_HAL_Driver/Src/stm32f4xx_hal_i2s_ex.c ****   return HAL_OK;
 111              		.loc 1 1121 10 view .LVU26
 112 0056 4846     		mov	r0, r9
 113              	.L6:
1122:Drivers/STM32F4xx_HAL_Driver/Src/stm32f4xx_hal_i2s_ex.c **** }
 114              		.loc 1 1122 1 view .LVU27
 115 0058 BDE8F883 		pop	{r3, r4, r5, r6, r7, r8, r9, pc}
 116              	.LVL5:
 117              	.L22:
1108:Drivers/STM32F4xx_HAL_Driver/Src/stm32f4xx_hal_i2s_ex.c ****         {
 118              		.loc 1 1108 9 is_stmt 1 view .LVU28
1108:Drivers/STM32F4xx_HAL_Driver/Src/stm32f4xx_hal_i2s_ex.c ****         {
 119              		.loc 1 1108 12 is_stmt 0 view .LVU29
 120 005c 2CB1     		cbz	r4, .L10
1108:Drivers/STM32F4xx_HAL_Driver/Src/stm32f4xx_hal_i2s_ex.c ****         {
 121              		.loc 1 1108 34 discriminator 1 view .LVU30
 122 005e FFF7FEFF 		bl	HAL_GetTick
 123              	.LVL6:
ARM GAS  /var/folders/sd/sw6_rvdd1xd6sxxq8gkv_lph0000gn/T//cc7sexlg.s 			page 23


1108:Drivers/STM32F4xx_HAL_Driver/Src/stm32f4xx_hal_i2s_ex.c ****         {
 124              		.loc 1 1108 48 discriminator 1 view .LVU31
 125 0062 A0EB0800 		sub	r0, r0, r8
1108:Drivers/STM32F4xx_HAL_Driver/Src/stm32f4xx_hal_i2s_ex.c ****         {
 126              		.loc 1 1108 29 discriminator 1 view .LVU32
 127 0066 A042     		cmp	r0, r4
 128 0068 10D9     		bls	.L9
 129              	.L10:
1111:Drivers/STM32F4xx_HAL_Driver/Src/stm32f4xx_hal_i2s_ex.c **** 
 130              		.loc 1 1111 11 is_stmt 1 view .LVU33
1111:Drivers/STM32F4xx_HAL_Driver/Src/stm32f4xx_hal_i2s_ex.c **** 
 131              		.loc 1 1111 23 is_stmt 0 view .LVU34
 132 006a 0123     		movs	r3, #1
 133 006c 85F84130 		strb	r3, [r5, #65]
1114:Drivers/STM32F4xx_HAL_Driver/Src/stm32f4xx_hal_i2s_ex.c **** 
 134              		.loc 1 1114 11 is_stmt 1 view .LVU35
1114:Drivers/STM32F4xx_HAL_Driver/Src/stm32f4xx_hal_i2s_ex.c **** 
 135              		.loc 1 1114 11 view .LVU36
 136 0070 0023     		movs	r3, #0
 137 0072 85F84030 		strb	r3, [r5, #64]
1114:Drivers/STM32F4xx_HAL_Driver/Src/stm32f4xx_hal_i2s_ex.c **** 
 138              		.loc 1 1114 11 view .LVU37
1116:Drivers/STM32F4xx_HAL_Driver/Src/stm32f4xx_hal_i2s_ex.c ****         }
 139              		.loc 1 1116 11 view .LVU38
1116:Drivers/STM32F4xx_HAL_Driver/Src/stm32f4xx_hal_i2s_ex.c ****         }
 140              		.loc 1 1116 18 is_stmt 0 view .LVU39
 141 0076 0320     		movs	r0, #3
 142 0078 EEE7     		b	.L6
 143              	.L23:
1104:Drivers/STM32F4xx_HAL_Driver/Src/stm32f4xx_hal_i2s_ex.c ****     {
 144              		.loc 1 1104 14 view .LVU40
 145 007a A3F58063 		sub	r3, r3, #1024
 146 007e 0BE0     		b	.L11
 147              	.L24:
1104:Drivers/STM32F4xx_HAL_Driver/Src/stm32f4xx_hal_i2s_ex.c ****     {
 148              		.loc 1 1104 55 view .LVU41
 149 0080 0123     		movs	r3, #1
 150              	.L12:
1104:Drivers/STM32F4xx_HAL_Driver/Src/stm32f4xx_hal_i2s_ex.c ****     {
 151              		.loc 1 1104 11 discriminator 8 view .LVU42
 152 0082 BB42     		cmp	r3, r7
 153 0084 0ED0     		beq	.L21
1106:Drivers/STM32F4xx_HAL_Driver/Src/stm32f4xx_hal_i2s_ex.c ****       {
 154              		.loc 1 1106 7 is_stmt 1 view .LVU43
1106:Drivers/STM32F4xx_HAL_Driver/Src/stm32f4xx_hal_i2s_ex.c ****       {
 155              		.loc 1 1106 10 is_stmt 0 view .LVU44
 156 0086 B4F1FF3F 		cmp	r4, #-1
 157 008a E7D1     		bne	.L22
 158              	.L9:
1104:Drivers/STM32F4xx_HAL_Driver/Src/stm32f4xx_hal_i2s_ex.c ****     {
 159              		.loc 1 1104 11 is_stmt 1 view .LVU45
1104:Drivers/STM32F4xx_HAL_Driver/Src/stm32f4xx_hal_i2s_ex.c ****     {
 160              		.loc 1 1104 14 is_stmt 0 view .LVU46
 161 008c 2A68     		ldr	r2, [r5]
 162 008e 064B     		ldr	r3, .L25
 163 0090 9A42     		cmp	r2, r3
 164 0092 F2D0     		beq	.L23
ARM GAS  /var/folders/sd/sw6_rvdd1xd6sxxq8gkv_lph0000gn/T//cc7sexlg.s 			page 24


 165 0094 4FF04023 		mov	r3, #1073758208
 166              	.L11:
1104:Drivers/STM32F4xx_HAL_Driver/Src/stm32f4xx_hal_i2s_ex.c ****     {
 167              		.loc 1 1104 14 discriminator 4 view .LVU47
 168 0098 9B68     		ldr	r3, [r3, #8]
1104:Drivers/STM32F4xx_HAL_Driver/Src/stm32f4xx_hal_i2s_ex.c ****     {
 169              		.loc 1 1104 55 discriminator 4 view .LVU48
 170 009a 36EA0303 		bics	r3, r6, r3
 171 009e EFD0     		beq	.L24
1104:Drivers/STM32F4xx_HAL_Driver/Src/stm32f4xx_hal_i2s_ex.c ****     {
 172              		.loc 1 1104 55 view .LVU49
 173 00a0 0023     		movs	r3, #0
 174 00a2 EEE7     		b	.L12
 175              	.L21:
1121:Drivers/STM32F4xx_HAL_Driver/Src/stm32f4xx_hal_i2s_ex.c **** }
 176              		.loc 1 1121 10 view .LVU50
 177 00a4 0020     		movs	r0, #0
 178 00a6 D7E7     		b	.L6
 179              	.L26:
 180              		.align	2
 181              	.L25:
 182 00a8 00380040 		.word	1073756160
 183              		.cfi_endproc
 184              	.LFE143:
 186              		.section	.text.I2SEx_TxRxDMAError,"ax",%progbits
 187              		.align	1
 188              		.syntax unified
 189              		.thumb
 190              		.thumb_func
 191              		.fpu fpv4-sp-d16
 193              	I2SEx_TxRxDMAError:
 194              	.LVL7:
 195              	.LFB138:
 926:Drivers/STM32F4xx_HAL_Driver/Src/stm32f4xx_hal_i2s_ex.c ****   I2S_HandleTypeDef *hi2s = (I2S_HandleTypeDef *)((DMA_HandleTypeDef *)hdma)->Parent;
 196              		.loc 1 926 1 is_stmt 1 view -0
 197              		.cfi_startproc
 198              		@ args = 0, pretend = 0, frame = 0
 199              		@ frame_needed = 0, uses_anonymous_args = 0
 926:Drivers/STM32F4xx_HAL_Driver/Src/stm32f4xx_hal_i2s_ex.c ****   I2S_HandleTypeDef *hi2s = (I2S_HandleTypeDef *)((DMA_HandleTypeDef *)hdma)->Parent;
 200              		.loc 1 926 1 is_stmt 0 view .LVU52
 201 0000 08B5     		push	{r3, lr}
 202              	.LCFI1:
 203              		.cfi_def_cfa_offset 8
 204              		.cfi_offset 3, -8
 205              		.cfi_offset 14, -4
 927:Drivers/STM32F4xx_HAL_Driver/Src/stm32f4xx_hal_i2s_ex.c **** 
 206              		.loc 1 927 3 is_stmt 1 view .LVU53
 927:Drivers/STM32F4xx_HAL_Driver/Src/stm32f4xx_hal_i2s_ex.c **** 
 207              		.loc 1 927 22 is_stmt 0 view .LVU54
 208 0002 806B     		ldr	r0, [r0, #56]
 209              	.LVL8:
 930:Drivers/STM32F4xx_HAL_Driver/Src/stm32f4xx_hal_i2s_ex.c ****   CLEAR_BIT(I2SxEXT(hi2s->Instance)->CR2, (SPI_CR2_RXDMAEN | SPI_CR2_TXDMAEN));
 210              		.loc 1 930 3 is_stmt 1 view .LVU55
 211 0004 0268     		ldr	r2, [r0]
 212 0006 5368     		ldr	r3, [r2, #4]
 213 0008 23F00303 		bic	r3, r3, #3
 214 000c 5360     		str	r3, [r2, #4]
ARM GAS  /var/folders/sd/sw6_rvdd1xd6sxxq8gkv_lph0000gn/T//cc7sexlg.s 			page 25


 931:Drivers/STM32F4xx_HAL_Driver/Src/stm32f4xx_hal_i2s_ex.c **** 
 215              		.loc 1 931 3 view .LVU56
 216 000e 0268     		ldr	r2, [r0]
 217 0010 0B4B     		ldr	r3, .L32
 218 0012 9A42     		cmp	r2, r3
 219 0014 12D0     		beq	.L31
 220 0016 4FF04022 		mov	r2, #1073758208
 221              	.L28:
 931:Drivers/STM32F4xx_HAL_Driver/Src/stm32f4xx_hal_i2s_ex.c **** 
 222              		.loc 1 931 3 is_stmt 0 discriminator 4 view .LVU57
 223 001a 5368     		ldr	r3, [r2, #4]
 224 001c 23F00303 		bic	r3, r3, #3
 225 0020 5360     		str	r3, [r2, #4]
 933:Drivers/STM32F4xx_HAL_Driver/Src/stm32f4xx_hal_i2s_ex.c ****   hi2s->RxXferCount = 0U;
 226              		.loc 1 933 3 is_stmt 1 discriminator 4 view .LVU58
 933:Drivers/STM32F4xx_HAL_Driver/Src/stm32f4xx_hal_i2s_ex.c ****   hi2s->RxXferCount = 0U;
 227              		.loc 1 933 21 is_stmt 0 discriminator 4 view .LVU59
 228 0022 0023     		movs	r3, #0
 229 0024 4385     		strh	r3, [r0, #42]	@ movhi
 934:Drivers/STM32F4xx_HAL_Driver/Src/stm32f4xx_hal_i2s_ex.c **** 
 230              		.loc 1 934 3 is_stmt 1 discriminator 4 view .LVU60
 934:Drivers/STM32F4xx_HAL_Driver/Src/stm32f4xx_hal_i2s_ex.c **** 
 231              		.loc 1 934 21 is_stmt 0 discriminator 4 view .LVU61
 232 0026 4386     		strh	r3, [r0, #50]	@ movhi
 936:Drivers/STM32F4xx_HAL_Driver/Src/stm32f4xx_hal_i2s_ex.c **** 
 233              		.loc 1 936 3 is_stmt 1 discriminator 4 view .LVU62
 936:Drivers/STM32F4xx_HAL_Driver/Src/stm32f4xx_hal_i2s_ex.c **** 
 234              		.loc 1 936 15 is_stmt 0 discriminator 4 view .LVU63
 235 0028 0123     		movs	r3, #1
 236 002a 80F84130 		strb	r3, [r0, #65]
 939:Drivers/STM32F4xx_HAL_Driver/Src/stm32f4xx_hal_i2s_ex.c ****   /* Call user error callback */
 237              		.loc 1 939 3 is_stmt 1 discriminator 4 view .LVU64
 238 002e 436C     		ldr	r3, [r0, #68]
 239 0030 43F00803 		orr	r3, r3, #8
 240 0034 4364     		str	r3, [r0, #68]
 944:Drivers/STM32F4xx_HAL_Driver/Src/stm32f4xx_hal_i2s_ex.c **** #endif /* USE_HAL_I2S_REGISTER_CALLBACKS */
 241              		.loc 1 944 3 discriminator 4 view .LVU65
 242 0036 FFF7FEFF 		bl	HAL_I2S_ErrorCallback
 243              	.LVL9:
 946:Drivers/STM32F4xx_HAL_Driver/Src/stm32f4xx_hal_i2s_ex.c **** 
 244              		.loc 1 946 1 is_stmt 0 discriminator 4 view .LVU66
 245 003a 08BD     		pop	{r3, pc}
 246              	.LVL10:
 247              	.L31:
 931:Drivers/STM32F4xx_HAL_Driver/Src/stm32f4xx_hal_i2s_ex.c **** 
 248              		.loc 1 931 3 view .LVU67
 249 003c 014A     		ldr	r2, .L32+4
 250 003e ECE7     		b	.L28
 251              	.L33:
 252              		.align	2
 253              	.L32:
 254 0040 00380040 		.word	1073756160
 255 0044 00340040 		.word	1073755136
 256              		.cfi_endproc
 257              	.LFE138:
 259              		.section	.text.HAL_I2SEx_TransmitReceive,"ax",%progbits
 260              		.align	1
ARM GAS  /var/folders/sd/sw6_rvdd1xd6sxxq8gkv_lph0000gn/T//cc7sexlg.s 			page 26


 261              		.global	HAL_I2SEx_TransmitReceive
 262              		.syntax unified
 263              		.thumb
 264              		.thumb_func
 265              		.fpu fpv4-sp-d16
 267              	HAL_I2SEx_TransmitReceive:
 268              	.LVL11:
 269              	.LFB130:
 213:Drivers/STM32F4xx_HAL_Driver/Src/stm32f4xx_hal_i2s_ex.c ****   uint32_t tmp1 = 0U;
 270              		.loc 1 213 1 is_stmt 1 view -0
 271              		.cfi_startproc
 272              		@ args = 4, pretend = 0, frame = 24
 273              		@ frame_needed = 0, uses_anonymous_args = 0
 213:Drivers/STM32F4xx_HAL_Driver/Src/stm32f4xx_hal_i2s_ex.c ****   uint32_t tmp1 = 0U;
 274              		.loc 1 213 1 is_stmt 0 view .LVU69
 275 0000 2DE9F043 		push	{r4, r5, r6, r7, r8, r9, lr}
 276              	.LCFI2:
 277              		.cfi_def_cfa_offset 28
 278              		.cfi_offset 4, -28
 279              		.cfi_offset 5, -24
 280              		.cfi_offset 6, -20
 281              		.cfi_offset 7, -16
 282              		.cfi_offset 8, -12
 283              		.cfi_offset 9, -8
 284              		.cfi_offset 14, -4
 285 0004 89B0     		sub	sp, sp, #36
 286              	.LCFI3:
 287              		.cfi_def_cfa_offset 64
 288 0006 0446     		mov	r4, r0
 289 0008 DDF84080 		ldr	r8, [sp, #64]
 214:Drivers/STM32F4xx_HAL_Driver/Src/stm32f4xx_hal_i2s_ex.c ****   HAL_StatusTypeDef errorcode = HAL_OK;
 290              		.loc 1 214 3 is_stmt 1 view .LVU70
 291              	.LVL12:
 215:Drivers/STM32F4xx_HAL_Driver/Src/stm32f4xx_hal_i2s_ex.c **** 
 292              		.loc 1 215 3 view .LVU71
 217:Drivers/STM32F4xx_HAL_Driver/Src/stm32f4xx_hal_i2s_ex.c ****   {
 293              		.loc 1 217 3 view .LVU72
 217:Drivers/STM32F4xx_HAL_Driver/Src/stm32f4xx_hal_i2s_ex.c ****   {
 294              		.loc 1 217 11 is_stmt 0 view .LVU73
 295 000c 90F84170 		ldrb	r7, [r0, #65]	@ zero_extendqisi2
 296 0010 FFB2     		uxtb	r7, r7
 217:Drivers/STM32F4xx_HAL_Driver/Src/stm32f4xx_hal_i2s_ex.c ****   {
 297              		.loc 1 217 6 view .LVU74
 298 0012 012F     		cmp	r7, #1
 299 0014 40F08081 		bne	.L65
 300 0018 1646     		mov	r6, r2
 223:Drivers/STM32F4xx_HAL_Driver/Src/stm32f4xx_hal_i2s_ex.c ****   {
 301              		.loc 1 223 3 is_stmt 1 view .LVU75
 223:Drivers/STM32F4xx_HAL_Driver/Src/stm32f4xx_hal_i2s_ex.c ****   {
 302              		.loc 1 223 6 is_stmt 0 view .LVU76
 303 001a 0029     		cmp	r1, #0
 304 001c 00F08381 		beq	.L36
 223:Drivers/STM32F4xx_HAL_Driver/Src/stm32f4xx_hal_i2s_ex.c ****   {
 305              		.loc 1 223 25 discriminator 1 view .LVU77
 306 0020 002A     		cmp	r2, #0
 307 0022 00F08081 		beq	.L36
 223:Drivers/STM32F4xx_HAL_Driver/Src/stm32f4xx_hal_i2s_ex.c ****   {
ARM GAS  /var/folders/sd/sw6_rvdd1xd6sxxq8gkv_lph0000gn/T//cc7sexlg.s 			page 27


 308              		.loc 1 223 46 discriminator 2 view .LVU78
 309 0026 002B     		cmp	r3, #0
 310 0028 00F07D81 		beq	.L36
 229:Drivers/STM32F4xx_HAL_Driver/Src/stm32f4xx_hal_i2s_ex.c **** 
 311              		.loc 1 229 3 is_stmt 1 view .LVU79
 229:Drivers/STM32F4xx_HAL_Driver/Src/stm32f4xx_hal_i2s_ex.c **** 
 312              		.loc 1 229 3 view .LVU80
 313 002c 90F84020 		ldrb	r2, [r0, #64]	@ zero_extendqisi2
 314              	.LVL13:
 229:Drivers/STM32F4xx_HAL_Driver/Src/stm32f4xx_hal_i2s_ex.c **** 
 315              		.loc 1 229 3 is_stmt 0 view .LVU81
 316 0030 D2B2     		uxtb	r2, r2
 317 0032 012A     		cmp	r2, #1
 318 0034 00F07B81 		beq	.L66
 229:Drivers/STM32F4xx_HAL_Driver/Src/stm32f4xx_hal_i2s_ex.c **** 
 319              		.loc 1 229 3 is_stmt 1 discriminator 2 view .LVU82
 320 0038 0122     		movs	r2, #1
 321 003a 80F84020 		strb	r2, [r0, #64]
 229:Drivers/STM32F4xx_HAL_Driver/Src/stm32f4xx_hal_i2s_ex.c **** 
 322              		.loc 1 229 3 discriminator 2 view .LVU83
 231:Drivers/STM32F4xx_HAL_Driver/Src/stm32f4xx_hal_i2s_ex.c ****   /* Check the Data format: When a 16-bit data frame or a 16-bit data frame extended
 323              		.loc 1 231 3 discriminator 2 view .LVU84
 231:Drivers/STM32F4xx_HAL_Driver/Src/stm32f4xx_hal_i2s_ex.c ****   /* Check the Data format: When a 16-bit data frame or a 16-bit data frame extended
 324              		.loc 1 231 14 is_stmt 0 discriminator 2 view .LVU85
 325 003e 0068     		ldr	r0, [r0]
 326              	.LVL14:
 231:Drivers/STM32F4xx_HAL_Driver/Src/stm32f4xx_hal_i2s_ex.c ****   /* Check the Data format: When a 16-bit data frame or a 16-bit data frame extended
 327              		.loc 1 231 24 discriminator 2 view .LVU86
 328 0040 C269     		ldr	r2, [r0, #28]
 231:Drivers/STM32F4xx_HAL_Driver/Src/stm32f4xx_hal_i2s_ex.c ****   /* Check the Data format: When a 16-bit data frame or a 16-bit data frame extended
 329              		.loc 1 231 8 discriminator 2 view .LVU87
 330 0042 02F00702 		and	r2, r2, #7
 331              	.LVL15:
 236:Drivers/STM32F4xx_HAL_Driver/Src/stm32f4xx_hal_i2s_ex.c ****   {
 332              		.loc 1 236 3 is_stmt 1 discriminator 2 view .LVU88
 236:Drivers/STM32F4xx_HAL_Driver/Src/stm32f4xx_hal_i2s_ex.c ****   {
 333              		.loc 1 236 6 is_stmt 0 discriminator 2 view .LVU89
 334 0046 032A     		cmp	r2, #3
 335 0048 06D0     		beq	.L37
 236:Drivers/STM32F4xx_HAL_Driver/Src/stm32f4xx_hal_i2s_ex.c ****   {
 336              		.loc 1 236 36 discriminator 1 view .LVU90
 337 004a 052A     		cmp	r2, #5
 338 004c 04D0     		beq	.L37
 245:Drivers/STM32F4xx_HAL_Driver/Src/stm32f4xx_hal_i2s_ex.c ****     hi2s->TxXferCount = Size;
 339              		.loc 1 245 5 is_stmt 1 view .LVU91
 245:Drivers/STM32F4xx_HAL_Driver/Src/stm32f4xx_hal_i2s_ex.c ****     hi2s->TxXferCount = Size;
 340              		.loc 1 245 23 is_stmt 0 view .LVU92
 341 004e 2385     		strh	r3, [r4, #40]	@ movhi
 246:Drivers/STM32F4xx_HAL_Driver/Src/stm32f4xx_hal_i2s_ex.c ****     hi2s->RxXferSize  = Size;
 342              		.loc 1 246 5 is_stmt 1 view .LVU93
 246:Drivers/STM32F4xx_HAL_Driver/Src/stm32f4xx_hal_i2s_ex.c ****     hi2s->RxXferSize  = Size;
 343              		.loc 1 246 23 is_stmt 0 view .LVU94
 344 0050 6385     		strh	r3, [r4, #42]	@ movhi
 247:Drivers/STM32F4xx_HAL_Driver/Src/stm32f4xx_hal_i2s_ex.c ****     hi2s->RxXferCount = Size;
 345              		.loc 1 247 5 is_stmt 1 view .LVU95
 247:Drivers/STM32F4xx_HAL_Driver/Src/stm32f4xx_hal_i2s_ex.c ****     hi2s->RxXferCount = Size;
 346              		.loc 1 247 23 is_stmt 0 view .LVU96
ARM GAS  /var/folders/sd/sw6_rvdd1xd6sxxq8gkv_lph0000gn/T//cc7sexlg.s 			page 28


 347 0052 2386     		strh	r3, [r4, #48]	@ movhi
 248:Drivers/STM32F4xx_HAL_Driver/Src/stm32f4xx_hal_i2s_ex.c ****   }
 348              		.loc 1 248 5 is_stmt 1 view .LVU97
 248:Drivers/STM32F4xx_HAL_Driver/Src/stm32f4xx_hal_i2s_ex.c ****   }
 349              		.loc 1 248 23 is_stmt 0 view .LVU98
 350 0054 6386     		strh	r3, [r4, #50]	@ movhi
 351 0056 05E0     		b	.L39
 352              	.L37:
 238:Drivers/STM32F4xx_HAL_Driver/Src/stm32f4xx_hal_i2s_ex.c ****     hi2s->TxXferCount = (Size << 1U);
 353              		.loc 1 238 5 is_stmt 1 view .LVU99
 238:Drivers/STM32F4xx_HAL_Driver/Src/stm32f4xx_hal_i2s_ex.c ****     hi2s->TxXferCount = (Size << 1U);
 354              		.loc 1 238 31 is_stmt 0 view .LVU100
 355 0058 5B00     		lsls	r3, r3, #1
 356              	.LVL16:
 238:Drivers/STM32F4xx_HAL_Driver/Src/stm32f4xx_hal_i2s_ex.c ****     hi2s->TxXferCount = (Size << 1U);
 357              		.loc 1 238 31 view .LVU101
 358 005a 9BB2     		uxth	r3, r3
 238:Drivers/STM32F4xx_HAL_Driver/Src/stm32f4xx_hal_i2s_ex.c ****     hi2s->TxXferCount = (Size << 1U);
 359              		.loc 1 238 23 view .LVU102
 360 005c 2385     		strh	r3, [r4, #40]	@ movhi
 239:Drivers/STM32F4xx_HAL_Driver/Src/stm32f4xx_hal_i2s_ex.c ****     hi2s->RxXferSize  = (Size << 1U);
 361              		.loc 1 239 5 is_stmt 1 view .LVU103
 239:Drivers/STM32F4xx_HAL_Driver/Src/stm32f4xx_hal_i2s_ex.c ****     hi2s->RxXferSize  = (Size << 1U);
 362              		.loc 1 239 23 is_stmt 0 view .LVU104
 363 005e 6385     		strh	r3, [r4, #42]	@ movhi
 240:Drivers/STM32F4xx_HAL_Driver/Src/stm32f4xx_hal_i2s_ex.c ****     hi2s->RxXferCount = (Size << 1U);
 364              		.loc 1 240 5 is_stmt 1 view .LVU105
 240:Drivers/STM32F4xx_HAL_Driver/Src/stm32f4xx_hal_i2s_ex.c ****     hi2s->RxXferCount = (Size << 1U);
 365              		.loc 1 240 23 is_stmt 0 view .LVU106
 366 0060 2386     		strh	r3, [r4, #48]	@ movhi
 241:Drivers/STM32F4xx_HAL_Driver/Src/stm32f4xx_hal_i2s_ex.c ****   }
 367              		.loc 1 241 5 is_stmt 1 view .LVU107
 241:Drivers/STM32F4xx_HAL_Driver/Src/stm32f4xx_hal_i2s_ex.c ****   }
 368              		.loc 1 241 23 is_stmt 0 view .LVU108
 369 0062 6386     		strh	r3, [r4, #50]	@ movhi
 370              	.L39:
 252:Drivers/STM32F4xx_HAL_Driver/Src/stm32f4xx_hal_i2s_ex.c ****   hi2s->State = HAL_I2S_STATE_BUSY_TX_RX;
 371              		.loc 1 252 3 is_stmt 1 view .LVU109
 252:Drivers/STM32F4xx_HAL_Driver/Src/stm32f4xx_hal_i2s_ex.c ****   hi2s->State = HAL_I2S_STATE_BUSY_TX_RX;
 372              		.loc 1 252 19 is_stmt 0 view .LVU110
 373 0064 0023     		movs	r3, #0
 374 0066 6364     		str	r3, [r4, #68]
 253:Drivers/STM32F4xx_HAL_Driver/Src/stm32f4xx_hal_i2s_ex.c **** 
 375              		.loc 1 253 3 is_stmt 1 view .LVU111
 253:Drivers/STM32F4xx_HAL_Driver/Src/stm32f4xx_hal_i2s_ex.c **** 
 376              		.loc 1 253 15 is_stmt 0 view .LVU112
 377 0068 0523     		movs	r3, #5
 378 006a 84F84130 		strb	r3, [r4, #65]
 255:Drivers/STM32F4xx_HAL_Driver/Src/stm32f4xx_hal_i2s_ex.c ****   /* Check if the I2S_MODE_MASTER_TX or I2S_MODE_SLAVE_TX Mode is selected */
 379              		.loc 1 255 3 is_stmt 1 view .LVU113
 255:Drivers/STM32F4xx_HAL_Driver/Src/stm32f4xx_hal_i2s_ex.c ****   /* Check if the I2S_MODE_MASTER_TX or I2S_MODE_SLAVE_TX Mode is selected */
 380              		.loc 1 255 24 is_stmt 0 view .LVU114
 381 006e C369     		ldr	r3, [r0, #28]
 255:Drivers/STM32F4xx_HAL_Driver/Src/stm32f4xx_hal_i2s_ex.c ****   /* Check if the I2S_MODE_MASTER_TX or I2S_MODE_SLAVE_TX Mode is selected */
 382              		.loc 1 255 8 view .LVU115
 383 0070 03F44079 		and	r9, r3, #768
 384              	.LVL17:
ARM GAS  /var/folders/sd/sw6_rvdd1xd6sxxq8gkv_lph0000gn/T//cc7sexlg.s 			page 29


 257:Drivers/STM32F4xx_HAL_Driver/Src/stm32f4xx_hal_i2s_ex.c ****   {
 385              		.loc 1 257 3 is_stmt 1 view .LVU116
 257:Drivers/STM32F4xx_HAL_Driver/Src/stm32f4xx_hal_i2s_ex.c ****   {
 386              		.loc 1 257 6 is_stmt 0 view .LVU117
 387 0074 B9F5007F 		cmp	r9, #512
 388 0078 03D0     		beq	.L40
 257:Drivers/STM32F4xx_HAL_Driver/Src/stm32f4xx_hal_i2s_ex.c ****   {
 389              		.loc 1 257 36 discriminator 1 view .LVU118
 390 007a B9F1000F 		cmp	r9, #0
 391 007e 40F0A680 		bne	.L41
 392              	.L40:
 260:Drivers/STM32F4xx_HAL_Driver/Src/stm32f4xx_hal_i2s_ex.c ****     hi2s->TxXferCount--;
 393              		.loc 1 260 5 is_stmt 1 view .LVU119
 260:Drivers/STM32F4xx_HAL_Driver/Src/stm32f4xx_hal_i2s_ex.c ****     hi2s->TxXferCount--;
 394              		.loc 1 260 35 is_stmt 0 view .LVU120
 395 0082 0D46     		mov	r5, r1
 396              	.LVL18:
 260:Drivers/STM32F4xx_HAL_Driver/Src/stm32f4xx_hal_i2s_ex.c ****     hi2s->TxXferCount--;
 397              		.loc 1 260 27 view .LVU121
 398 0084 35F8023B 		ldrh	r3, [r5], #2
 399              	.LVL19:
 260:Drivers/STM32F4xx_HAL_Driver/Src/stm32f4xx_hal_i2s_ex.c ****     hi2s->TxXferCount--;
 400              		.loc 1 260 24 view .LVU122
 401 0088 C360     		str	r3, [r0, #12]
 261:Drivers/STM32F4xx_HAL_Driver/Src/stm32f4xx_hal_i2s_ex.c **** 
 402              		.loc 1 261 5 is_stmt 1 view .LVU123
 261:Drivers/STM32F4xx_HAL_Driver/Src/stm32f4xx_hal_i2s_ex.c **** 
 403              		.loc 1 261 9 is_stmt 0 view .LVU124
 404 008a 638D     		ldrh	r3, [r4, #42]
 405 008c 9BB2     		uxth	r3, r3
 261:Drivers/STM32F4xx_HAL_Driver/Src/stm32f4xx_hal_i2s_ex.c **** 
 406              		.loc 1 261 22 view .LVU125
 407 008e 013B     		subs	r3, r3, #1
 408 0090 9BB2     		uxth	r3, r3
 409 0092 6385     		strh	r3, [r4, #42]	@ movhi
 264:Drivers/STM32F4xx_HAL_Driver/Src/stm32f4xx_hal_i2s_ex.c **** 
 410              		.loc 1 264 5 is_stmt 1 view .LVU126
 411 0094 2268     		ldr	r2, [r4]
 412 0096 8A4B     		ldr	r3, .L98
 413 0098 9A42     		cmp	r2, r3
 414 009a 1ED0     		beq	.L82
 415 009c 4FF04022 		mov	r2, #1073758208
 416              	.L42:
 264:Drivers/STM32F4xx_HAL_Driver/Src/stm32f4xx_hal_i2s_ex.c **** 
 417              		.loc 1 264 5 is_stmt 0 discriminator 4 view .LVU127
 418 00a0 D369     		ldr	r3, [r2, #28]
 419 00a2 43F48063 		orr	r3, r3, #1024
 420 00a6 D361     		str	r3, [r2, #28]
 267:Drivers/STM32F4xx_HAL_Driver/Src/stm32f4xx_hal_i2s_ex.c **** 
 421              		.loc 1 267 5 is_stmt 1 discriminator 4 view .LVU128
 422 00a8 2268     		ldr	r2, [r4]
 423 00aa D369     		ldr	r3, [r2, #28]
 424 00ac 43F48063 		orr	r3, r3, #1024
 425 00b0 D361     		str	r3, [r2, #28]
 270:Drivers/STM32F4xx_HAL_Driver/Src/stm32f4xx_hal_i2s_ex.c ****     {
 426              		.loc 1 270 5 discriminator 4 view .LVU129
 270:Drivers/STM32F4xx_HAL_Driver/Src/stm32f4xx_hal_i2s_ex.c ****     {
ARM GAS  /var/folders/sd/sw6_rvdd1xd6sxxq8gkv_lph0000gn/T//cc7sexlg.s 			page 30


 427              		.loc 1 270 14 is_stmt 0 discriminator 4 view .LVU130
 428 00b2 2268     		ldr	r2, [r4]
 270:Drivers/STM32F4xx_HAL_Driver/Src/stm32f4xx_hal_i2s_ex.c ****     {
 429              		.loc 1 270 24 discriminator 4 view .LVU131
 430 00b4 D369     		ldr	r3, [r2, #28]
 270:Drivers/STM32F4xx_HAL_Driver/Src/stm32f4xx_hal_i2s_ex.c ****     {
 431              		.loc 1 270 34 discriminator 4 view .LVU132
 432 00b6 03F44073 		and	r3, r3, #768
 270:Drivers/STM32F4xx_HAL_Driver/Src/stm32f4xx_hal_i2s_ex.c ****     {
 433              		.loc 1 270 8 discriminator 4 view .LVU133
 434 00ba B3F5007F 		cmp	r3, #512
 435 00be 18D1     		bne	.L45
 274:Drivers/STM32F4xx_HAL_Driver/Src/stm32f4xx_hal_i2s_ex.c ****     }
 436              		.loc 1 274 7 is_stmt 1 view .LVU134
 437              	.LBB2:
 274:Drivers/STM32F4xx_HAL_Driver/Src/stm32f4xx_hal_i2s_ex.c ****     }
 438              		.loc 1 274 7 view .LVU135
 439 00c0 0023     		movs	r3, #0
 440 00c2 0293     		str	r3, [sp, #8]
 274:Drivers/STM32F4xx_HAL_Driver/Src/stm32f4xx_hal_i2s_ex.c ****     }
 441              		.loc 1 274 7 view .LVU136
 442 00c4 7E4B     		ldr	r3, .L98
 443 00c6 9A42     		cmp	r2, r3
 444 00c8 09D0     		beq	.L83
 445 00ca 4FF04023 		mov	r3, #1073758208
 446              	.L44:
 274:Drivers/STM32F4xx_HAL_Driver/Src/stm32f4xx_hal_i2s_ex.c ****     }
 447              		.loc 1 274 7 is_stmt 0 discriminator 4 view .LVU137
 448 00ce DA68     		ldr	r2, [r3, #12]
 449 00d0 0292     		str	r2, [sp, #8]
 274:Drivers/STM32F4xx_HAL_Driver/Src/stm32f4xx_hal_i2s_ex.c ****     }
 450              		.loc 1 274 7 is_stmt 1 discriminator 4 view .LVU138
 451 00d2 9B68     		ldr	r3, [r3, #8]
 452 00d4 0293     		str	r3, [sp, #8]
 274:Drivers/STM32F4xx_HAL_Driver/Src/stm32f4xx_hal_i2s_ex.c ****     }
 453              		.loc 1 274 7 discriminator 4 view .LVU139
 454 00d6 029B     		ldr	r3, [sp, #8]
 455 00d8 0BE0     		b	.L45
 456              	.L82:
 274:Drivers/STM32F4xx_HAL_Driver/Src/stm32f4xx_hal_i2s_ex.c ****     }
 457              		.loc 1 274 7 is_stmt 0 discriminator 4 view .LVU140
 458              	.LBE2:
 264:Drivers/STM32F4xx_HAL_Driver/Src/stm32f4xx_hal_i2s_ex.c **** 
 459              		.loc 1 264 5 view .LVU141
 460 00da 7A4A     		ldr	r2, .L98+4
 461 00dc E0E7     		b	.L42
 462              	.L83:
 463              	.LBB3:
 274:Drivers/STM32F4xx_HAL_Driver/Src/stm32f4xx_hal_i2s_ex.c ****     }
 464              		.loc 1 274 7 view .LVU142
 465 00de A3F58063 		sub	r3, r3, #1024
 466 00e2 F4E7     		b	.L44
 467              	.L52:
 274:Drivers/STM32F4xx_HAL_Driver/Src/stm32f4xx_hal_i2s_ex.c ****     }
 468              		.loc 1 274 7 view .LVU143
 469              	.LBE3:
 279:Drivers/STM32F4xx_HAL_Driver/Src/stm32f4xx_hal_i2s_ex.c ****       {
ARM GAS  /var/folders/sd/sw6_rvdd1xd6sxxq8gkv_lph0000gn/T//cc7sexlg.s 			page 31


 470              		.loc 1 279 7 is_stmt 1 view .LVU144
 279:Drivers/STM32F4xx_HAL_Driver/Src/stm32f4xx_hal_i2s_ex.c ****       {
 471              		.loc 1 279 15 is_stmt 0 view .LVU145
 472 00e4 638D     		ldrh	r3, [r4, #42]
 473 00e6 9BB2     		uxth	r3, r3
 279:Drivers/STM32F4xx_HAL_Driver/Src/stm32f4xx_hal_i2s_ex.c ****       {
 474              		.loc 1 279 10 view .LVU146
 475 00e8 8BB9     		cbnz	r3, .L84
 476              	.L46:
 303:Drivers/STM32F4xx_HAL_Driver/Src/stm32f4xx_hal_i2s_ex.c ****       {
 477              		.loc 1 303 7 is_stmt 1 view .LVU147
 303:Drivers/STM32F4xx_HAL_Driver/Src/stm32f4xx_hal_i2s_ex.c ****       {
 478              		.loc 1 303 15 is_stmt 0 view .LVU148
 479 00ea 638E     		ldrh	r3, [r4, #50]
 480 00ec 9BB2     		uxth	r3, r3
 303:Drivers/STM32F4xx_HAL_Driver/Src/stm32f4xx_hal_i2s_ex.c ****       {
 481              		.loc 1 303 10 view .LVU149
 482 00ee 002B     		cmp	r3, #0
 483 00f0 36D1     		bne	.L85
 484              	.L45:
 277:Drivers/STM32F4xx_HAL_Driver/Src/stm32f4xx_hal_i2s_ex.c ****     {
 485              		.loc 1 277 11 is_stmt 1 view .LVU150
 277:Drivers/STM32F4xx_HAL_Driver/Src/stm32f4xx_hal_i2s_ex.c ****     {
 486              		.loc 1 277 17 is_stmt 0 view .LVU151
 487 00f2 638E     		ldrh	r3, [r4, #50]
 488 00f4 9BB2     		uxth	r3, r3
 277:Drivers/STM32F4xx_HAL_Driver/Src/stm32f4xx_hal_i2s_ex.c ****     {
 489              		.loc 1 277 11 view .LVU152
 490 00f6 002B     		cmp	r3, #0
 491 00f8 F4D1     		bne	.L52
 277:Drivers/STM32F4xx_HAL_Driver/Src/stm32f4xx_hal_i2s_ex.c ****     {
 492              		.loc 1 277 45 discriminator 1 view .LVU153
 493 00fa 638D     		ldrh	r3, [r4, #42]
 494 00fc 9BB2     		uxth	r3, r3
 277:Drivers/STM32F4xx_HAL_Driver/Src/stm32f4xx_hal_i2s_ex.c ****     {
 495              		.loc 1 277 37 discriminator 1 view .LVU154
 496 00fe 002B     		cmp	r3, #0
 497 0100 F0D1     		bne	.L52
 498              	.L53:
 403:Drivers/STM32F4xx_HAL_Driver/Src/stm32f4xx_hal_i2s_ex.c ****   {
 499              		.loc 1 403 3 is_stmt 1 view .LVU155
 403:Drivers/STM32F4xx_HAL_Driver/Src/stm32f4xx_hal_i2s_ex.c ****   {
 500              		.loc 1 403 11 is_stmt 0 view .LVU156
 501 0102 636C     		ldr	r3, [r4, #68]
 403:Drivers/STM32F4xx_HAL_Driver/Src/stm32f4xx_hal_i2s_ex.c ****   {
 502              		.loc 1 403 6 view .LVU157
 503 0104 002B     		cmp	r3, #0
 504 0106 40F00881 		bne	.L35
 215:Drivers/STM32F4xx_HAL_Driver/Src/stm32f4xx_hal_i2s_ex.c **** 
 505              		.loc 1 215 21 view .LVU158
 506 010a 0027     		movs	r7, #0
 507 010c 05E1     		b	.L35
 508              	.L84:
 282:Drivers/STM32F4xx_HAL_Driver/Src/stm32f4xx_hal_i2s_ex.c ****         {
 509              		.loc 1 282 9 is_stmt 1 view .LVU159
 282:Drivers/STM32F4xx_HAL_Driver/Src/stm32f4xx_hal_i2s_ex.c ****         {
 510              		.loc 1 282 13 is_stmt 0 view .LVU160
ARM GAS  /var/folders/sd/sw6_rvdd1xd6sxxq8gkv_lph0000gn/T//cc7sexlg.s 			page 32


 511 010e 0023     		movs	r3, #0
 512 0110 0093     		str	r3, [sp]
 513 0112 4346     		mov	r3, r8
 514 0114 0122     		movs	r2, #1
 515 0116 0221     		movs	r1, #2
 516 0118 2046     		mov	r0, r4
 517 011a FFF7FEFF 		bl	I2SEx_FullDuplexWaitFlagStateUntilTimeout
 518              	.LVL20:
 282:Drivers/STM32F4xx_HAL_Driver/Src/stm32f4xx_hal_i2s_ex.c ****         {
 519              		.loc 1 282 12 view .LVU161
 520 011e D0B9     		cbnz	r0, .L86
 290:Drivers/STM32F4xx_HAL_Driver/Src/stm32f4xx_hal_i2s_ex.c ****         hi2s->TxXferCount--;
 521              		.loc 1 290 9 is_stmt 1 view .LVU162
 522              	.LVL21:
 290:Drivers/STM32F4xx_HAL_Driver/Src/stm32f4xx_hal_i2s_ex.c ****         hi2s->TxXferCount--;
 523              		.loc 1 290 13 is_stmt 0 view .LVU163
 524 0120 2368     		ldr	r3, [r4]
 290:Drivers/STM32F4xx_HAL_Driver/Src/stm32f4xx_hal_i2s_ex.c ****         hi2s->TxXferCount--;
 525              		.loc 1 290 31 view .LVU164
 526 0122 35F8022B 		ldrh	r2, [r5], #2
 527              	.LVL22:
 290:Drivers/STM32F4xx_HAL_Driver/Src/stm32f4xx_hal_i2s_ex.c ****         hi2s->TxXferCount--;
 528              		.loc 1 290 28 view .LVU165
 529 0126 DA60     		str	r2, [r3, #12]
 291:Drivers/STM32F4xx_HAL_Driver/Src/stm32f4xx_hal_i2s_ex.c **** 
 530              		.loc 1 291 9 is_stmt 1 view .LVU166
 291:Drivers/STM32F4xx_HAL_Driver/Src/stm32f4xx_hal_i2s_ex.c **** 
 531              		.loc 1 291 13 is_stmt 0 view .LVU167
 532 0128 638D     		ldrh	r3, [r4, #42]
 533 012a 9BB2     		uxth	r3, r3
 291:Drivers/STM32F4xx_HAL_Driver/Src/stm32f4xx_hal_i2s_ex.c **** 
 534              		.loc 1 291 26 view .LVU168
 535 012c 013B     		subs	r3, r3, #1
 536 012e 9BB2     		uxth	r3, r3
 537 0130 6385     		strh	r3, [r4, #42]	@ movhi
 294:Drivers/STM32F4xx_HAL_Driver/Src/stm32f4xx_hal_i2s_ex.c ****         {
 538              		.loc 1 294 9 is_stmt 1 view .LVU169
 294:Drivers/STM32F4xx_HAL_Driver/Src/stm32f4xx_hal_i2s_ex.c ****         {
 539              		.loc 1 294 14 is_stmt 0 view .LVU170
 540 0132 2368     		ldr	r3, [r4]
 541 0134 9A68     		ldr	r2, [r3, #8]
 294:Drivers/STM32F4xx_HAL_Driver/Src/stm32f4xx_hal_i2s_ex.c ****         {
 542              		.loc 1 294 12 view .LVU171
 543 0136 12F0080F 		tst	r2, #8
 544 013a D6D0     		beq	.L46
 294:Drivers/STM32F4xx_HAL_Driver/Src/stm32f4xx_hal_i2s_ex.c ****         {
 545              		.loc 1 294 61 discriminator 1 view .LVU172
 546 013c B9F1000F 		cmp	r9, #0
 547 0140 D3D1     		bne	.L46
 297:Drivers/STM32F4xx_HAL_Driver/Src/stm32f4xx_hal_i2s_ex.c **** 
 548              		.loc 1 297 11 is_stmt 1 view .LVU173
 549              	.LBB4:
 297:Drivers/STM32F4xx_HAL_Driver/Src/stm32f4xx_hal_i2s_ex.c **** 
 550              		.loc 1 297 11 view .LVU174
 551 0142 0022     		movs	r2, #0
 552 0144 0392     		str	r2, [sp, #12]
 297:Drivers/STM32F4xx_HAL_Driver/Src/stm32f4xx_hal_i2s_ex.c **** 
ARM GAS  /var/folders/sd/sw6_rvdd1xd6sxxq8gkv_lph0000gn/T//cc7sexlg.s 			page 33


 553              		.loc 1 297 11 view .LVU175
 554 0146 9B68     		ldr	r3, [r3, #8]
 555 0148 0393     		str	r3, [sp, #12]
 297:Drivers/STM32F4xx_HAL_Driver/Src/stm32f4xx_hal_i2s_ex.c **** 
 556              		.loc 1 297 11 view .LVU176
 557 014a 039B     		ldr	r3, [sp, #12]
 558              	.LBE4:
 297:Drivers/STM32F4xx_HAL_Driver/Src/stm32f4xx_hal_i2s_ex.c **** 
 559              		.loc 1 297 11 view .LVU177
 300:Drivers/STM32F4xx_HAL_Driver/Src/stm32f4xx_hal_i2s_ex.c ****         }
 560              		.loc 1 300 11 view .LVU178
 561 014c 636C     		ldr	r3, [r4, #68]
 562 014e 43F00403 		orr	r3, r3, #4
 563 0152 6364     		str	r3, [r4, #68]
 564 0154 C9E7     		b	.L46
 565              	.L86:
 285:Drivers/STM32F4xx_HAL_Driver/Src/stm32f4xx_hal_i2s_ex.c ****           errorcode = HAL_ERROR;
 566              		.loc 1 285 11 view .LVU179
 567 0156 636C     		ldr	r3, [r4, #68]
 568 0158 43F00103 		orr	r3, r3, #1
 569 015c 6364     		str	r3, [r4, #68]
 286:Drivers/STM32F4xx_HAL_Driver/Src/stm32f4xx_hal_i2s_ex.c ****           goto error;
 570              		.loc 1 286 11 view .LVU180
 571              	.LVL23:
 287:Drivers/STM32F4xx_HAL_Driver/Src/stm32f4xx_hal_i2s_ex.c ****         }
 572              		.loc 1 287 11 view .LVU181
 573 015e DCE0     		b	.L35
 574              	.LVL24:
 575              	.L85:
 306:Drivers/STM32F4xx_HAL_Driver/Src/stm32f4xx_hal_i2s_ex.c ****         {
 576              		.loc 1 306 9 view .LVU182
 306:Drivers/STM32F4xx_HAL_Driver/Src/stm32f4xx_hal_i2s_ex.c ****         {
 577              		.loc 1 306 13 is_stmt 0 view .LVU183
 578 0160 0121     		movs	r1, #1
 579 0162 0091     		str	r1, [sp]
 580 0164 4346     		mov	r3, r8
 581 0166 0A46     		mov	r2, r1
 582 0168 2046     		mov	r0, r4
 583 016a FFF7FEFF 		bl	I2SEx_FullDuplexWaitFlagStateUntilTimeout
 584              	.LVL25:
 306:Drivers/STM32F4xx_HAL_Driver/Src/stm32f4xx_hal_i2s_ex.c ****         {
 585              		.loc 1 306 12 view .LVU184
 586 016e 18BB     		cbnz	r0, .L87
 314:Drivers/STM32F4xx_HAL_Driver/Src/stm32f4xx_hal_i2s_ex.c ****         hi2s->RxXferCount--;
 587              		.loc 1 314 9 is_stmt 1 view .LVU185
 314:Drivers/STM32F4xx_HAL_Driver/Src/stm32f4xx_hal_i2s_ex.c ****         hi2s->RxXferCount--;
 588              		.loc 1 314 24 is_stmt 0 view .LVU186
 589 0170 2268     		ldr	r2, [r4]
 590 0172 534B     		ldr	r3, .L98
 591 0174 9A42     		cmp	r2, r3
 592 0176 24D0     		beq	.L88
 593 0178 4FF04023 		mov	r3, #1073758208
 594              	.L50:
 314:Drivers/STM32F4xx_HAL_Driver/Src/stm32f4xx_hal_i2s_ex.c ****         hi2s->RxXferCount--;
 595              		.loc 1 314 47 discriminator 4 view .LVU187
 596 017c DB68     		ldr	r3, [r3, #12]
 597              	.LVL26:
ARM GAS  /var/folders/sd/sw6_rvdd1xd6sxxq8gkv_lph0000gn/T//cc7sexlg.s 			page 34


 314:Drivers/STM32F4xx_HAL_Driver/Src/stm32f4xx_hal_i2s_ex.c ****         hi2s->RxXferCount--;
 598              		.loc 1 314 22 discriminator 4 view .LVU188
 599 017e 26F8023B 		strh	r3, [r6], #2	@ movhi
 600              	.LVL27:
 315:Drivers/STM32F4xx_HAL_Driver/Src/stm32f4xx_hal_i2s_ex.c **** 
 601              		.loc 1 315 9 is_stmt 1 discriminator 4 view .LVU189
 315:Drivers/STM32F4xx_HAL_Driver/Src/stm32f4xx_hal_i2s_ex.c **** 
 602              		.loc 1 315 13 is_stmt 0 discriminator 4 view .LVU190
 603 0182 638E     		ldrh	r3, [r4, #50]
 604 0184 9BB2     		uxth	r3, r3
 315:Drivers/STM32F4xx_HAL_Driver/Src/stm32f4xx_hal_i2s_ex.c **** 
 605              		.loc 1 315 26 discriminator 4 view .LVU191
 606 0186 013B     		subs	r3, r3, #1
 607 0188 9BB2     		uxth	r3, r3
 608 018a 6386     		strh	r3, [r4, #50]	@ movhi
 318:Drivers/STM32F4xx_HAL_Driver/Src/stm32f4xx_hal_i2s_ex.c ****         {
 609              		.loc 1 318 9 is_stmt 1 discriminator 4 view .LVU192
 318:Drivers/STM32F4xx_HAL_Driver/Src/stm32f4xx_hal_i2s_ex.c ****         {
 610              		.loc 1 318 13 is_stmt 0 discriminator 4 view .LVU193
 611 018c 2368     		ldr	r3, [r4]
 612 018e 4C4A     		ldr	r2, .L98
 613 0190 9342     		cmp	r3, r2
 614 0192 19D0     		beq	.L89
 318:Drivers/STM32F4xx_HAL_Driver/Src/stm32f4xx_hal_i2s_ex.c ****         {
 615              		.loc 1 318 13 view .LVU194
 616 0194 4FF04022 		mov	r2, #1073758208
 617              	.L51:
 318:Drivers/STM32F4xx_HAL_Driver/Src/stm32f4xx_hal_i2s_ex.c ****         {
 618              		.loc 1 318 13 discriminator 4 view .LVU195
 619 0198 9268     		ldr	r2, [r2, #8]
 318:Drivers/STM32F4xx_HAL_Driver/Src/stm32f4xx_hal_i2s_ex.c ****         {
 620              		.loc 1 318 12 discriminator 4 view .LVU196
 621 019a 12F0400F 		tst	r2, #64
 622 019e A8D0     		beq	.L45
 321:Drivers/STM32F4xx_HAL_Driver/Src/stm32f4xx_hal_i2s_ex.c **** 
 623              		.loc 1 321 11 is_stmt 1 view .LVU197
 624              	.LBB5:
 321:Drivers/STM32F4xx_HAL_Driver/Src/stm32f4xx_hal_i2s_ex.c **** 
 625              		.loc 1 321 11 view .LVU198
 626 01a0 0022     		movs	r2, #0
 627 01a2 0492     		str	r2, [sp, #16]
 321:Drivers/STM32F4xx_HAL_Driver/Src/stm32f4xx_hal_i2s_ex.c **** 
 628              		.loc 1 321 11 view .LVU199
 629 01a4 DA68     		ldr	r2, [r3, #12]
 630 01a6 0492     		str	r2, [sp, #16]
 321:Drivers/STM32F4xx_HAL_Driver/Src/stm32f4xx_hal_i2s_ex.c **** 
 631              		.loc 1 321 11 view .LVU200
 632 01a8 9B68     		ldr	r3, [r3, #8]
 633 01aa 0493     		str	r3, [sp, #16]
 321:Drivers/STM32F4xx_HAL_Driver/Src/stm32f4xx_hal_i2s_ex.c **** 
 634              		.loc 1 321 11 view .LVU201
 635 01ac 049B     		ldr	r3, [sp, #16]
 636              	.LBE5:
 321:Drivers/STM32F4xx_HAL_Driver/Src/stm32f4xx_hal_i2s_ex.c **** 
 637              		.loc 1 321 11 view .LVU202
 324:Drivers/STM32F4xx_HAL_Driver/Src/stm32f4xx_hal_i2s_ex.c ****         }
 638              		.loc 1 324 11 view .LVU203
ARM GAS  /var/folders/sd/sw6_rvdd1xd6sxxq8gkv_lph0000gn/T//cc7sexlg.s 			page 35


 639 01ae 636C     		ldr	r3, [r4, #68]
 640 01b0 43F00203 		orr	r3, r3, #2
 641 01b4 6364     		str	r3, [r4, #68]
 642 01b6 9CE7     		b	.L45
 643              	.L87:
 309:Drivers/STM32F4xx_HAL_Driver/Src/stm32f4xx_hal_i2s_ex.c ****           errorcode = HAL_ERROR;
 644              		.loc 1 309 11 view .LVU204
 645 01b8 636C     		ldr	r3, [r4, #68]
 646 01ba 43F00103 		orr	r3, r3, #1
 647 01be 6364     		str	r3, [r4, #68]
 310:Drivers/STM32F4xx_HAL_Driver/Src/stm32f4xx_hal_i2s_ex.c ****           goto error;
 648              		.loc 1 310 11 view .LVU205
 649              	.LVL28:
 311:Drivers/STM32F4xx_HAL_Driver/Src/stm32f4xx_hal_i2s_ex.c ****         }
 650              		.loc 1 311 11 view .LVU206
 651 01c0 ABE0     		b	.L35
 652              	.LVL29:
 653              	.L88:
 314:Drivers/STM32F4xx_HAL_Driver/Src/stm32f4xx_hal_i2s_ex.c ****         hi2s->RxXferCount--;
 654              		.loc 1 314 24 is_stmt 0 view .LVU207
 655 01c2 A3F58063 		sub	r3, r3, #1024
 656 01c6 D9E7     		b	.L50
 657              	.L89:
 318:Drivers/STM32F4xx_HAL_Driver/Src/stm32f4xx_hal_i2s_ex.c ****         {
 658              		.loc 1 318 13 view .LVU208
 659 01c8 A2F58062 		sub	r2, r2, #1024
 660 01cc E4E7     		b	.L51
 661              	.LVL30:
 662              	.L41:
 333:Drivers/STM32F4xx_HAL_Driver/Src/stm32f4xx_hal_i2s_ex.c ****     hi2s->TxXferCount--;
 663              		.loc 1 333 5 is_stmt 1 view .LVU209
 333:Drivers/STM32F4xx_HAL_Driver/Src/stm32f4xx_hal_i2s_ex.c ****     hi2s->TxXferCount--;
 664              		.loc 1 333 44 is_stmt 0 view .LVU210
 665 01ce 0D46     		mov	r5, r1
 666              	.LVL31:
 333:Drivers/STM32F4xx_HAL_Driver/Src/stm32f4xx_hal_i2s_ex.c ****     hi2s->TxXferCount--;
 667              		.loc 1 333 36 view .LVU211
 668 01d0 35F8022B 		ldrh	r2, [r5], #2
 669              	.LVL32:
 333:Drivers/STM32F4xx_HAL_Driver/Src/stm32f4xx_hal_i2s_ex.c ****     hi2s->TxXferCount--;
 670              		.loc 1 333 5 view .LVU212
 671 01d4 3A4B     		ldr	r3, .L98
 672 01d6 9842     		cmp	r0, r3
 673 01d8 25D0     		beq	.L90
 674 01da 4FF04023 		mov	r3, #1073758208
 675              	.L54:
 333:Drivers/STM32F4xx_HAL_Driver/Src/stm32f4xx_hal_i2s_ex.c ****     hi2s->TxXferCount--;
 676              		.loc 1 333 33 discriminator 4 view .LVU213
 677 01de DA60     		str	r2, [r3, #12]
 334:Drivers/STM32F4xx_HAL_Driver/Src/stm32f4xx_hal_i2s_ex.c **** 
 678              		.loc 1 334 5 is_stmt 1 discriminator 4 view .LVU214
 334:Drivers/STM32F4xx_HAL_Driver/Src/stm32f4xx_hal_i2s_ex.c **** 
 679              		.loc 1 334 9 is_stmt 0 discriminator 4 view .LVU215
 680 01e0 638D     		ldrh	r3, [r4, #42]
 681 01e2 9BB2     		uxth	r3, r3
 334:Drivers/STM32F4xx_HAL_Driver/Src/stm32f4xx_hal_i2s_ex.c **** 
 682              		.loc 1 334 22 discriminator 4 view .LVU216
ARM GAS  /var/folders/sd/sw6_rvdd1xd6sxxq8gkv_lph0000gn/T//cc7sexlg.s 			page 36


 683 01e4 013B     		subs	r3, r3, #1
 684 01e6 9BB2     		uxth	r3, r3
 685 01e8 6385     		strh	r3, [r4, #42]	@ movhi
 337:Drivers/STM32F4xx_HAL_Driver/Src/stm32f4xx_hal_i2s_ex.c **** 
 686              		.loc 1 337 5 is_stmt 1 discriminator 4 view .LVU217
 687 01ea 2268     		ldr	r2, [r4]
 688 01ec 344B     		ldr	r3, .L98
 689 01ee 9A42     		cmp	r2, r3
 690 01f0 1CD0     		beq	.L91
 337:Drivers/STM32F4xx_HAL_Driver/Src/stm32f4xx_hal_i2s_ex.c **** 
 691              		.loc 1 337 5 is_stmt 0 view .LVU218
 692 01f2 4FF04022 		mov	r2, #1073758208
 693              	.L55:
 337:Drivers/STM32F4xx_HAL_Driver/Src/stm32f4xx_hal_i2s_ex.c **** 
 694              		.loc 1 337 5 discriminator 4 view .LVU219
 695 01f6 D369     		ldr	r3, [r2, #28]
 696 01f8 43F48063 		orr	r3, r3, #1024
 697 01fc D361     		str	r3, [r2, #28]
 340:Drivers/STM32F4xx_HAL_Driver/Src/stm32f4xx_hal_i2s_ex.c **** 
 698              		.loc 1 340 5 is_stmt 1 discriminator 4 view .LVU220
 699 01fe 2268     		ldr	r2, [r4]
 700 0200 D369     		ldr	r3, [r2, #28]
 701 0202 43F48063 		orr	r3, r3, #1024
 702 0206 D361     		str	r3, [r2, #28]
 343:Drivers/STM32F4xx_HAL_Driver/Src/stm32f4xx_hal_i2s_ex.c ****     {
 703              		.loc 1 343 5 discriminator 4 view .LVU221
 343:Drivers/STM32F4xx_HAL_Driver/Src/stm32f4xx_hal_i2s_ex.c ****     {
 704              		.loc 1 343 14 is_stmt 0 discriminator 4 view .LVU222
 705 0208 2268     		ldr	r2, [r4]
 343:Drivers/STM32F4xx_HAL_Driver/Src/stm32f4xx_hal_i2s_ex.c ****     {
 706              		.loc 1 343 24 discriminator 4 view .LVU223
 707 020a D369     		ldr	r3, [r2, #28]
 343:Drivers/STM32F4xx_HAL_Driver/Src/stm32f4xx_hal_i2s_ex.c ****     {
 708              		.loc 1 343 34 discriminator 4 view .LVU224
 709 020c 03F44073 		and	r3, r3, #768
 343:Drivers/STM32F4xx_HAL_Driver/Src/stm32f4xx_hal_i2s_ex.c ****     {
 710              		.loc 1 343 8 discriminator 4 view .LVU225
 711 0210 B3F5407F 		cmp	r3, #768
 712 0214 13D1     		bne	.L57
 347:Drivers/STM32F4xx_HAL_Driver/Src/stm32f4xx_hal_i2s_ex.c ****     }
 713              		.loc 1 347 7 is_stmt 1 view .LVU226
 714              	.LBB6:
 347:Drivers/STM32F4xx_HAL_Driver/Src/stm32f4xx_hal_i2s_ex.c ****     }
 715              		.loc 1 347 7 view .LVU227
 716 0216 0023     		movs	r3, #0
 717 0218 0593     		str	r3, [sp, #20]
 347:Drivers/STM32F4xx_HAL_Driver/Src/stm32f4xx_hal_i2s_ex.c ****     }
 718              		.loc 1 347 7 view .LVU228
 719 021a D368     		ldr	r3, [r2, #12]
 720 021c 0593     		str	r3, [sp, #20]
 347:Drivers/STM32F4xx_HAL_Driver/Src/stm32f4xx_hal_i2s_ex.c ****     }
 721              		.loc 1 347 7 view .LVU229
 722 021e 9368     		ldr	r3, [r2, #8]
 723 0220 0593     		str	r3, [sp, #20]
 347:Drivers/STM32F4xx_HAL_Driver/Src/stm32f4xx_hal_i2s_ex.c ****     }
 724              		.loc 1 347 7 view .LVU230
 725 0222 059B     		ldr	r3, [sp, #20]
ARM GAS  /var/folders/sd/sw6_rvdd1xd6sxxq8gkv_lph0000gn/T//cc7sexlg.s 			page 37


 726 0224 0BE0     		b	.L57
 727              	.L90:
 347:Drivers/STM32F4xx_HAL_Driver/Src/stm32f4xx_hal_i2s_ex.c ****     }
 728              		.loc 1 347 7 is_stmt 0 view .LVU231
 729              	.LBE6:
 333:Drivers/STM32F4xx_HAL_Driver/Src/stm32f4xx_hal_i2s_ex.c ****     hi2s->TxXferCount--;
 730              		.loc 1 333 5 view .LVU232
 731 0226 A3F58063 		sub	r3, r3, #1024
 732 022a D8E7     		b	.L54
 733              	.L91:
 337:Drivers/STM32F4xx_HAL_Driver/Src/stm32f4xx_hal_i2s_ex.c **** 
 734              		.loc 1 337 5 view .LVU233
 735 022c 254A     		ldr	r2, .L98+4
 736 022e E2E7     		b	.L55
 737              	.L64:
 352:Drivers/STM32F4xx_HAL_Driver/Src/stm32f4xx_hal_i2s_ex.c ****       {
 738              		.loc 1 352 7 is_stmt 1 view .LVU234
 352:Drivers/STM32F4xx_HAL_Driver/Src/stm32f4xx_hal_i2s_ex.c ****       {
 739              		.loc 1 352 15 is_stmt 0 view .LVU235
 740 0230 638D     		ldrh	r3, [r4, #42]
 741 0232 9BB2     		uxth	r3, r3
 352:Drivers/STM32F4xx_HAL_Driver/Src/stm32f4xx_hal_i2s_ex.c ****       {
 742              		.loc 1 352 10 view .LVU236
 743 0234 63B9     		cbnz	r3, .L92
 744              	.L58:
 376:Drivers/STM32F4xx_HAL_Driver/Src/stm32f4xx_hal_i2s_ex.c ****       {
 745              		.loc 1 376 7 is_stmt 1 view .LVU237
 376:Drivers/STM32F4xx_HAL_Driver/Src/stm32f4xx_hal_i2s_ex.c ****       {
 746              		.loc 1 376 15 is_stmt 0 view .LVU238
 747 0236 638E     		ldrh	r3, [r4, #50]
 748 0238 9BB2     		uxth	r3, r3
 376:Drivers/STM32F4xx_HAL_Driver/Src/stm32f4xx_hal_i2s_ex.c ****       {
 749              		.loc 1 376 10 view .LVU239
 750 023a 002B     		cmp	r3, #0
 751 023c 44D1     		bne	.L93
 752              	.L57:
 350:Drivers/STM32F4xx_HAL_Driver/Src/stm32f4xx_hal_i2s_ex.c ****     {
 753              		.loc 1 350 11 is_stmt 1 view .LVU240
 350:Drivers/STM32F4xx_HAL_Driver/Src/stm32f4xx_hal_i2s_ex.c ****     {
 754              		.loc 1 350 17 is_stmt 0 view .LVU241
 755 023e 638E     		ldrh	r3, [r4, #50]
 756 0240 9BB2     		uxth	r3, r3
 350:Drivers/STM32F4xx_HAL_Driver/Src/stm32f4xx_hal_i2s_ex.c ****     {
 757              		.loc 1 350 11 view .LVU242
 758 0242 002B     		cmp	r3, #0
 759 0244 F4D1     		bne	.L64
 350:Drivers/STM32F4xx_HAL_Driver/Src/stm32f4xx_hal_i2s_ex.c ****     {
 760              		.loc 1 350 45 discriminator 1 view .LVU243
 761 0246 638D     		ldrh	r3, [r4, #42]
 762 0248 9BB2     		uxth	r3, r3
 350:Drivers/STM32F4xx_HAL_Driver/Src/stm32f4xx_hal_i2s_ex.c ****     {
 763              		.loc 1 350 37 discriminator 1 view .LVU244
 764 024a 002B     		cmp	r3, #0
 765 024c F0D1     		bne	.L64
 766 024e 58E7     		b	.L53
 767              	.L92:
 355:Drivers/STM32F4xx_HAL_Driver/Src/stm32f4xx_hal_i2s_ex.c ****         {
ARM GAS  /var/folders/sd/sw6_rvdd1xd6sxxq8gkv_lph0000gn/T//cc7sexlg.s 			page 38


 768              		.loc 1 355 9 is_stmt 1 view .LVU245
 355:Drivers/STM32F4xx_HAL_Driver/Src/stm32f4xx_hal_i2s_ex.c ****         {
 769              		.loc 1 355 13 is_stmt 0 view .LVU246
 770 0250 0122     		movs	r2, #1
 771 0252 0092     		str	r2, [sp]
 772 0254 4346     		mov	r3, r8
 773 0256 0221     		movs	r1, #2
 774 0258 2046     		mov	r0, r4
 775 025a FFF7FEFF 		bl	I2SEx_FullDuplexWaitFlagStateUntilTimeout
 776              	.LVL33:
 355:Drivers/STM32F4xx_HAL_Driver/Src/stm32f4xx_hal_i2s_ex.c ****         {
 777              		.loc 1 355 12 view .LVU247
 778 025e 20BB     		cbnz	r0, .L94
 363:Drivers/STM32F4xx_HAL_Driver/Src/stm32f4xx_hal_i2s_ex.c ****         hi2s->TxXferCount--;
 779              		.loc 1 363 9 is_stmt 1 view .LVU248
 780              	.LVL34:
 363:Drivers/STM32F4xx_HAL_Driver/Src/stm32f4xx_hal_i2s_ex.c ****         hi2s->TxXferCount--;
 781              		.loc 1 363 40 is_stmt 0 view .LVU249
 782 0260 35F8022B 		ldrh	r2, [r5], #2
 783              	.LVL35:
 363:Drivers/STM32F4xx_HAL_Driver/Src/stm32f4xx_hal_i2s_ex.c ****         hi2s->TxXferCount--;
 784              		.loc 1 363 9 view .LVU250
 785 0264 2168     		ldr	r1, [r4]
 786 0266 164B     		ldr	r3, .L98
 787 0268 9942     		cmp	r1, r3
 788 026a 23D0     		beq	.L95
 789 026c 4FF04023 		mov	r3, #1073758208
 790              	.L60:
 363:Drivers/STM32F4xx_HAL_Driver/Src/stm32f4xx_hal_i2s_ex.c ****         hi2s->TxXferCount--;
 791              		.loc 1 363 37 discriminator 4 view .LVU251
 792 0270 DA60     		str	r2, [r3, #12]
 364:Drivers/STM32F4xx_HAL_Driver/Src/stm32f4xx_hal_i2s_ex.c **** 
 793              		.loc 1 364 9 is_stmt 1 discriminator 4 view .LVU252
 364:Drivers/STM32F4xx_HAL_Driver/Src/stm32f4xx_hal_i2s_ex.c **** 
 794              		.loc 1 364 13 is_stmt 0 discriminator 4 view .LVU253
 795 0272 638D     		ldrh	r3, [r4, #42]
 796 0274 9BB2     		uxth	r3, r3
 364:Drivers/STM32F4xx_HAL_Driver/Src/stm32f4xx_hal_i2s_ex.c **** 
 797              		.loc 1 364 26 discriminator 4 view .LVU254
 798 0276 013B     		subs	r3, r3, #1
 799 0278 9BB2     		uxth	r3, r3
 800 027a 6385     		strh	r3, [r4, #42]	@ movhi
 367:Drivers/STM32F4xx_HAL_Driver/Src/stm32f4xx_hal_i2s_ex.c ****         {
 801              		.loc 1 367 9 is_stmt 1 discriminator 4 view .LVU255
 367:Drivers/STM32F4xx_HAL_Driver/Src/stm32f4xx_hal_i2s_ex.c ****         {
 802              		.loc 1 367 14 is_stmt 0 discriminator 4 view .LVU256
 803 027c 2368     		ldr	r3, [r4]
 804 027e 104A     		ldr	r2, .L98
 805 0280 9342     		cmp	r3, r2
 806 0282 1AD0     		beq	.L96
 367:Drivers/STM32F4xx_HAL_Driver/Src/stm32f4xx_hal_i2s_ex.c ****         {
 807              		.loc 1 367 14 view .LVU257
 808 0284 4FF04022 		mov	r2, #1073758208
 809              	.L61:
 367:Drivers/STM32F4xx_HAL_Driver/Src/stm32f4xx_hal_i2s_ex.c ****         {
 810              		.loc 1 367 14 discriminator 4 view .LVU258
 811 0288 9268     		ldr	r2, [r2, #8]
ARM GAS  /var/folders/sd/sw6_rvdd1xd6sxxq8gkv_lph0000gn/T//cc7sexlg.s 			page 39


 367:Drivers/STM32F4xx_HAL_Driver/Src/stm32f4xx_hal_i2s_ex.c ****         {
 812              		.loc 1 367 12 discriminator 4 view .LVU259
 813 028a 12F0080F 		tst	r2, #8
 814 028e D2D0     		beq	.L58
 367:Drivers/STM32F4xx_HAL_Driver/Src/stm32f4xx_hal_i2s_ex.c ****         {
 815              		.loc 1 367 64 discriminator 5 view .LVU260
 816 0290 B9F5807F 		cmp	r9, #256
 817 0294 CFD1     		bne	.L58
 370:Drivers/STM32F4xx_HAL_Driver/Src/stm32f4xx_hal_i2s_ex.c **** 
 818              		.loc 1 370 11 is_stmt 1 view .LVU261
 819              	.LBB7:
 370:Drivers/STM32F4xx_HAL_Driver/Src/stm32f4xx_hal_i2s_ex.c **** 
 820              		.loc 1 370 11 view .LVU262
 821 0296 0022     		movs	r2, #0
 822 0298 0692     		str	r2, [sp, #24]
 370:Drivers/STM32F4xx_HAL_Driver/Src/stm32f4xx_hal_i2s_ex.c **** 
 823              		.loc 1 370 11 view .LVU263
 824 029a 9B68     		ldr	r3, [r3, #8]
 825 029c 0693     		str	r3, [sp, #24]
 370:Drivers/STM32F4xx_HAL_Driver/Src/stm32f4xx_hal_i2s_ex.c **** 
 826              		.loc 1 370 11 view .LVU264
 827 029e 069B     		ldr	r3, [sp, #24]
 828              	.LBE7:
 370:Drivers/STM32F4xx_HAL_Driver/Src/stm32f4xx_hal_i2s_ex.c **** 
 829              		.loc 1 370 11 view .LVU265
 373:Drivers/STM32F4xx_HAL_Driver/Src/stm32f4xx_hal_i2s_ex.c ****         }
 830              		.loc 1 373 11 view .LVU266
 831 02a0 636C     		ldr	r3, [r4, #68]
 832 02a2 43F00403 		orr	r3, r3, #4
 833 02a6 6364     		str	r3, [r4, #68]
 834 02a8 C5E7     		b	.L58
 835              	.L94:
 358:Drivers/STM32F4xx_HAL_Driver/Src/stm32f4xx_hal_i2s_ex.c ****           errorcode = HAL_ERROR;
 836              		.loc 1 358 11 view .LVU267
 837 02aa 636C     		ldr	r3, [r4, #68]
 838 02ac 43F00103 		orr	r3, r3, #1
 839 02b0 6364     		str	r3, [r4, #68]
 359:Drivers/STM32F4xx_HAL_Driver/Src/stm32f4xx_hal_i2s_ex.c ****           goto error;
 840              		.loc 1 359 11 view .LVU268
 841              	.LVL36:
 360:Drivers/STM32F4xx_HAL_Driver/Src/stm32f4xx_hal_i2s_ex.c ****         }
 842              		.loc 1 360 11 view .LVU269
 843 02b2 32E0     		b	.L35
 844              	.LVL37:
 845              	.L95:
 363:Drivers/STM32F4xx_HAL_Driver/Src/stm32f4xx_hal_i2s_ex.c ****         hi2s->TxXferCount--;
 846              		.loc 1 363 9 is_stmt 0 view .LVU270
 847 02b4 A3F58063 		sub	r3, r3, #1024
 848 02b8 DAE7     		b	.L60
 849              	.L96:
 367:Drivers/STM32F4xx_HAL_Driver/Src/stm32f4xx_hal_i2s_ex.c ****         {
 850              		.loc 1 367 14 view .LVU271
 851 02ba A2F58062 		sub	r2, r2, #1024
 852 02be E3E7     		b	.L61
 853              	.L99:
 854              		.align	2
 855              	.L98:
ARM GAS  /var/folders/sd/sw6_rvdd1xd6sxxq8gkv_lph0000gn/T//cc7sexlg.s 			page 40


 856 02c0 00380040 		.word	1073756160
 857 02c4 00340040 		.word	1073755136
 858              	.L93:
 379:Drivers/STM32F4xx_HAL_Driver/Src/stm32f4xx_hal_i2s_ex.c ****         {
 859              		.loc 1 379 9 is_stmt 1 view .LVU272
 379:Drivers/STM32F4xx_HAL_Driver/Src/stm32f4xx_hal_i2s_ex.c ****         {
 860              		.loc 1 379 13 is_stmt 0 view .LVU273
 861 02c8 0023     		movs	r3, #0
 862 02ca 0093     		str	r3, [sp]
 863 02cc 4346     		mov	r3, r8
 864 02ce 0122     		movs	r2, #1
 865 02d0 1146     		mov	r1, r2
 866 02d2 2046     		mov	r0, r4
 867 02d4 FFF7FEFF 		bl	I2SEx_FullDuplexWaitFlagStateUntilTimeout
 868              	.LVL38:
 379:Drivers/STM32F4xx_HAL_Driver/Src/stm32f4xx_hal_i2s_ex.c ****         {
 869              		.loc 1 379 12 view .LVU274
 870 02d8 C8B9     		cbnz	r0, .L97
 387:Drivers/STM32F4xx_HAL_Driver/Src/stm32f4xx_hal_i2s_ex.c ****         hi2s->RxXferCount--;
 871              		.loc 1 387 9 is_stmt 1 view .LVU275
 387:Drivers/STM32F4xx_HAL_Driver/Src/stm32f4xx_hal_i2s_ex.c ****         hi2s->RxXferCount--;
 872              		.loc 1 387 28 is_stmt 0 view .LVU276
 873 02da 2368     		ldr	r3, [r4]
 387:Drivers/STM32F4xx_HAL_Driver/Src/stm32f4xx_hal_i2s_ex.c ****         hi2s->RxXferCount--;
 874              		.loc 1 387 38 view .LVU277
 875 02dc DB68     		ldr	r3, [r3, #12]
 876              	.LVL39:
 387:Drivers/STM32F4xx_HAL_Driver/Src/stm32f4xx_hal_i2s_ex.c ****         hi2s->RxXferCount--;
 877              		.loc 1 387 22 view .LVU278
 878 02de 26F8023B 		strh	r3, [r6], #2	@ movhi
 879              	.LVL40:
 388:Drivers/STM32F4xx_HAL_Driver/Src/stm32f4xx_hal_i2s_ex.c **** 
 880              		.loc 1 388 9 is_stmt 1 view .LVU279
 388:Drivers/STM32F4xx_HAL_Driver/Src/stm32f4xx_hal_i2s_ex.c **** 
 881              		.loc 1 388 13 is_stmt 0 view .LVU280
 882 02e2 638E     		ldrh	r3, [r4, #50]
 883 02e4 9BB2     		uxth	r3, r3
 388:Drivers/STM32F4xx_HAL_Driver/Src/stm32f4xx_hal_i2s_ex.c **** 
 884              		.loc 1 388 26 view .LVU281
 885 02e6 013B     		subs	r3, r3, #1
 886 02e8 9BB2     		uxth	r3, r3
 887 02ea 6386     		strh	r3, [r4, #50]	@ movhi
 391:Drivers/STM32F4xx_HAL_Driver/Src/stm32f4xx_hal_i2s_ex.c ****         {
 888              		.loc 1 391 9 is_stmt 1 view .LVU282
 391:Drivers/STM32F4xx_HAL_Driver/Src/stm32f4xx_hal_i2s_ex.c ****         {
 889              		.loc 1 391 13 is_stmt 0 view .LVU283
 890 02ec 2368     		ldr	r3, [r4]
 891 02ee 9A68     		ldr	r2, [r3, #8]
 391:Drivers/STM32F4xx_HAL_Driver/Src/stm32f4xx_hal_i2s_ex.c ****         {
 892              		.loc 1 391 12 view .LVU284
 893 02f0 12F0400F 		tst	r2, #64
 894 02f4 A3D0     		beq	.L57
 394:Drivers/STM32F4xx_HAL_Driver/Src/stm32f4xx_hal_i2s_ex.c **** 
 895              		.loc 1 394 11 is_stmt 1 view .LVU285
 896              	.LBB8:
 394:Drivers/STM32F4xx_HAL_Driver/Src/stm32f4xx_hal_i2s_ex.c **** 
 897              		.loc 1 394 11 view .LVU286
ARM GAS  /var/folders/sd/sw6_rvdd1xd6sxxq8gkv_lph0000gn/T//cc7sexlg.s 			page 41


 898 02f6 0022     		movs	r2, #0
 899 02f8 0792     		str	r2, [sp, #28]
 394:Drivers/STM32F4xx_HAL_Driver/Src/stm32f4xx_hal_i2s_ex.c **** 
 900              		.loc 1 394 11 view .LVU287
 901 02fa DA68     		ldr	r2, [r3, #12]
 902 02fc 0792     		str	r2, [sp, #28]
 394:Drivers/STM32F4xx_HAL_Driver/Src/stm32f4xx_hal_i2s_ex.c **** 
 903              		.loc 1 394 11 view .LVU288
 904 02fe 9B68     		ldr	r3, [r3, #8]
 905 0300 0793     		str	r3, [sp, #28]
 394:Drivers/STM32F4xx_HAL_Driver/Src/stm32f4xx_hal_i2s_ex.c **** 
 906              		.loc 1 394 11 view .LVU289
 907 0302 079B     		ldr	r3, [sp, #28]
 908              	.LBE8:
 394:Drivers/STM32F4xx_HAL_Driver/Src/stm32f4xx_hal_i2s_ex.c **** 
 909              		.loc 1 394 11 view .LVU290
 397:Drivers/STM32F4xx_HAL_Driver/Src/stm32f4xx_hal_i2s_ex.c ****         }
 910              		.loc 1 397 11 view .LVU291
 911 0304 636C     		ldr	r3, [r4, #68]
 912 0306 43F00203 		orr	r3, r3, #2
 913 030a 6364     		str	r3, [r4, #68]
 914 030c 97E7     		b	.L57
 915              	.L97:
 382:Drivers/STM32F4xx_HAL_Driver/Src/stm32f4xx_hal_i2s_ex.c ****           errorcode = HAL_ERROR;
 916              		.loc 1 382 11 view .LVU292
 917 030e 636C     		ldr	r3, [r4, #68]
 918 0310 43F00103 		orr	r3, r3, #1
 919 0314 6364     		str	r3, [r4, #68]
 383:Drivers/STM32F4xx_HAL_Driver/Src/stm32f4xx_hal_i2s_ex.c ****           goto error;
 920              		.loc 1 383 11 view .LVU293
 921              	.LVL41:
 384:Drivers/STM32F4xx_HAL_Driver/Src/stm32f4xx_hal_i2s_ex.c ****         }
 922              		.loc 1 384 11 view .LVU294
 923 0316 00E0     		b	.L35
 924              	.LVL42:
 925              	.L65:
 219:Drivers/STM32F4xx_HAL_Driver/Src/stm32f4xx_hal_i2s_ex.c ****     goto error;
 926              		.loc 1 219 15 is_stmt 0 view .LVU295
 927 0318 0227     		movs	r7, #2
 928              	.LVL43:
 929              	.L35:
 409:Drivers/STM32F4xx_HAL_Driver/Src/stm32f4xx_hal_i2s_ex.c ****   __HAL_UNLOCK(hi2s);
 930              		.loc 1 409 3 is_stmt 1 view .LVU296
 409:Drivers/STM32F4xx_HAL_Driver/Src/stm32f4xx_hal_i2s_ex.c ****   __HAL_UNLOCK(hi2s);
 931              		.loc 1 409 15 is_stmt 0 view .LVU297
 932 031a 0123     		movs	r3, #1
 933 031c 84F84130 		strb	r3, [r4, #65]
 410:Drivers/STM32F4xx_HAL_Driver/Src/stm32f4xx_hal_i2s_ex.c ****   return errorcode;
 934              		.loc 1 410 3 is_stmt 1 view .LVU298
 410:Drivers/STM32F4xx_HAL_Driver/Src/stm32f4xx_hal_i2s_ex.c ****   return errorcode;
 935              		.loc 1 410 3 view .LVU299
 936 0320 0023     		movs	r3, #0
 937 0322 84F84030 		strb	r3, [r4, #64]
 410:Drivers/STM32F4xx_HAL_Driver/Src/stm32f4xx_hal_i2s_ex.c ****   return errorcode;
 938              		.loc 1 410 3 view .LVU300
 411:Drivers/STM32F4xx_HAL_Driver/Src/stm32f4xx_hal_i2s_ex.c **** }
 939              		.loc 1 411 3 view .LVU301
ARM GAS  /var/folders/sd/sw6_rvdd1xd6sxxq8gkv_lph0000gn/T//cc7sexlg.s 			page 42


 940              	.LVL44:
 941              	.L36:
 412:Drivers/STM32F4xx_HAL_Driver/Src/stm32f4xx_hal_i2s_ex.c **** 
 942              		.loc 1 412 1 is_stmt 0 view .LVU302
 943 0326 3846     		mov	r0, r7
 944 0328 09B0     		add	sp, sp, #36
 945              	.LCFI4:
 946              		.cfi_remember_state
 947              		.cfi_def_cfa_offset 28
 948              		@ sp needed
 949 032a BDE8F083 		pop	{r4, r5, r6, r7, r8, r9, pc}
 950              	.LVL45:
 951              	.L66:
 952              	.LCFI5:
 953              		.cfi_restore_state
 229:Drivers/STM32F4xx_HAL_Driver/Src/stm32f4xx_hal_i2s_ex.c **** 
 954              		.loc 1 229 3 view .LVU303
 955 032e 0227     		movs	r7, #2
 956 0330 F9E7     		b	.L36
 957              		.cfi_endproc
 958              	.LFE130:
 960 0332 00BF     		.section	.text.HAL_I2SEx_TransmitReceive_IT,"ax",%progbits
 961              		.align	1
 962              		.global	HAL_I2SEx_TransmitReceive_IT
 963              		.syntax unified
 964              		.thumb
 965              		.thumb_func
 966              		.fpu fpv4-sp-d16
 968              	HAL_I2SEx_TransmitReceive_IT:
 969              	.LVL46:
 970              	.LFB131:
 433:Drivers/STM32F4xx_HAL_Driver/Src/stm32f4xx_hal_i2s_ex.c ****   uint32_t tmp1 = 0U;
 971              		.loc 1 433 1 is_stmt 1 view -0
 972              		.cfi_startproc
 973              		@ args = 0, pretend = 0, frame = 0
 974              		@ frame_needed = 0, uses_anonymous_args = 0
 975              		@ link register save eliminated.
 433:Drivers/STM32F4xx_HAL_Driver/Src/stm32f4xx_hal_i2s_ex.c ****   uint32_t tmp1 = 0U;
 976              		.loc 1 433 1 is_stmt 0 view .LVU305
 977 0000 8446     		mov	ip, r0
 434:Drivers/STM32F4xx_HAL_Driver/Src/stm32f4xx_hal_i2s_ex.c ****   HAL_StatusTypeDef errorcode = HAL_OK;
 978              		.loc 1 434 3 is_stmt 1 view .LVU306
 979              	.LVL47:
 435:Drivers/STM32F4xx_HAL_Driver/Src/stm32f4xx_hal_i2s_ex.c **** 
 980              		.loc 1 435 3 view .LVU307
 437:Drivers/STM32F4xx_HAL_Driver/Src/stm32f4xx_hal_i2s_ex.c ****   {
 981              		.loc 1 437 3 view .LVU308
 437:Drivers/STM32F4xx_HAL_Driver/Src/stm32f4xx_hal_i2s_ex.c ****   {
 982              		.loc 1 437 11 is_stmt 0 view .LVU309
 983 0002 90F84100 		ldrb	r0, [r0, #65]	@ zero_extendqisi2
 984              	.LVL48:
 437:Drivers/STM32F4xx_HAL_Driver/Src/stm32f4xx_hal_i2s_ex.c ****   {
 985              		.loc 1 437 11 view .LVU310
 986 0006 C0B2     		uxtb	r0, r0
 437:Drivers/STM32F4xx_HAL_Driver/Src/stm32f4xx_hal_i2s_ex.c ****   {
 987              		.loc 1 437 6 view .LVU311
 988 0008 0128     		cmp	r0, #1
ARM GAS  /var/folders/sd/sw6_rvdd1xd6sxxq8gkv_lph0000gn/T//cc7sexlg.s 			page 43


 989 000a 40F0BB80 		bne	.L114
 443:Drivers/STM32F4xx_HAL_Driver/Src/stm32f4xx_hal_i2s_ex.c ****   {
 990              		.loc 1 443 3 is_stmt 1 view .LVU312
 443:Drivers/STM32F4xx_HAL_Driver/Src/stm32f4xx_hal_i2s_ex.c ****   {
 991              		.loc 1 443 6 is_stmt 0 view .LVU313
 992 000e 0029     		cmp	r1, #0
 993 0010 00F0BE80 		beq	.L102
 443:Drivers/STM32F4xx_HAL_Driver/Src/stm32f4xx_hal_i2s_ex.c ****   {
 994              		.loc 1 443 25 discriminator 1 view .LVU314
 995 0014 002A     		cmp	r2, #0
 996 0016 00F0BB80 		beq	.L102
 443:Drivers/STM32F4xx_HAL_Driver/Src/stm32f4xx_hal_i2s_ex.c ****   {
 997              		.loc 1 443 46 discriminator 2 view .LVU315
 998 001a 002B     		cmp	r3, #0
 999 001c 00F0B880 		beq	.L102
 449:Drivers/STM32F4xx_HAL_Driver/Src/stm32f4xx_hal_i2s_ex.c **** 
 1000              		.loc 1 449 3 is_stmt 1 view .LVU316
 449:Drivers/STM32F4xx_HAL_Driver/Src/stm32f4xx_hal_i2s_ex.c **** 
 1001              		.loc 1 449 3 view .LVU317
 1002 0020 9CF84000 		ldrb	r0, [ip, #64]	@ zero_extendqisi2
 1003 0024 C0B2     		uxtb	r0, r0
 1004 0026 0128     		cmp	r0, #1
 1005 0028 00F0B180 		beq	.L115
 449:Drivers/STM32F4xx_HAL_Driver/Src/stm32f4xx_hal_i2s_ex.c **** 
 1006              		.loc 1 449 3 discriminator 2 view .LVU318
 1007 002c 0120     		movs	r0, #1
 1008 002e 8CF84000 		strb	r0, [ip, #64]
 449:Drivers/STM32F4xx_HAL_Driver/Src/stm32f4xx_hal_i2s_ex.c **** 
 1009              		.loc 1 449 3 discriminator 2 view .LVU319
 451:Drivers/STM32F4xx_HAL_Driver/Src/stm32f4xx_hal_i2s_ex.c ****   hi2s->pRxBuffPtr = pRxData;
 1010              		.loc 1 451 3 discriminator 2 view .LVU320
 451:Drivers/STM32F4xx_HAL_Driver/Src/stm32f4xx_hal_i2s_ex.c ****   hi2s->pRxBuffPtr = pRxData;
 1011              		.loc 1 451 20 is_stmt 0 discriminator 2 view .LVU321
 1012 0032 CCF82410 		str	r1, [ip, #36]
 452:Drivers/STM32F4xx_HAL_Driver/Src/stm32f4xx_hal_i2s_ex.c **** 
 1013              		.loc 1 452 3 is_stmt 1 discriminator 2 view .LVU322
 452:Drivers/STM32F4xx_HAL_Driver/Src/stm32f4xx_hal_i2s_ex.c **** 
 1014              		.loc 1 452 20 is_stmt 0 discriminator 2 view .LVU323
 1015 0036 CCF82C20 		str	r2, [ip, #44]
 454:Drivers/STM32F4xx_HAL_Driver/Src/stm32f4xx_hal_i2s_ex.c ****   /* Check the Data format: When a 16-bit data frame or a 16-bit data frame extended
 1016              		.loc 1 454 3 is_stmt 1 discriminator 2 view .LVU324
 454:Drivers/STM32F4xx_HAL_Driver/Src/stm32f4xx_hal_i2s_ex.c ****   /* Check the Data format: When a 16-bit data frame or a 16-bit data frame extended
 1017              		.loc 1 454 14 is_stmt 0 discriminator 2 view .LVU325
 1018 003a DCF80010 		ldr	r1, [ip]
 1019              	.LVL49:
 454:Drivers/STM32F4xx_HAL_Driver/Src/stm32f4xx_hal_i2s_ex.c ****   /* Check the Data format: When a 16-bit data frame or a 16-bit data frame extended
 1020              		.loc 1 454 24 discriminator 2 view .LVU326
 1021 003e CA69     		ldr	r2, [r1, #28]
 1022              	.LVL50:
 454:Drivers/STM32F4xx_HAL_Driver/Src/stm32f4xx_hal_i2s_ex.c ****   /* Check the Data format: When a 16-bit data frame or a 16-bit data frame extended
 1023              		.loc 1 454 8 discriminator 2 view .LVU327
 1024 0040 02F00702 		and	r2, r2, #7
 1025              	.LVL51:
 459:Drivers/STM32F4xx_HAL_Driver/Src/stm32f4xx_hal_i2s_ex.c ****   {
 1026              		.loc 1 459 3 is_stmt 1 discriminator 2 view .LVU328
 459:Drivers/STM32F4xx_HAL_Driver/Src/stm32f4xx_hal_i2s_ex.c ****   {
 1027              		.loc 1 459 6 is_stmt 0 discriminator 2 view .LVU329
ARM GAS  /var/folders/sd/sw6_rvdd1xd6sxxq8gkv_lph0000gn/T//cc7sexlg.s 			page 44


 1028 0044 032A     		cmp	r2, #3
 1029 0046 0AD0     		beq	.L103
 459:Drivers/STM32F4xx_HAL_Driver/Src/stm32f4xx_hal_i2s_ex.c ****   {
 1030              		.loc 1 459 36 discriminator 1 view .LVU330
 1031 0048 052A     		cmp	r2, #5
 1032 004a 08D0     		beq	.L103
 468:Drivers/STM32F4xx_HAL_Driver/Src/stm32f4xx_hal_i2s_ex.c ****     hi2s->TxXferCount = Size;
 1033              		.loc 1 468 5 is_stmt 1 view .LVU331
 468:Drivers/STM32F4xx_HAL_Driver/Src/stm32f4xx_hal_i2s_ex.c ****     hi2s->TxXferCount = Size;
 1034              		.loc 1 468 23 is_stmt 0 view .LVU332
 1035 004c ACF82830 		strh	r3, [ip, #40]	@ movhi
 469:Drivers/STM32F4xx_HAL_Driver/Src/stm32f4xx_hal_i2s_ex.c ****     hi2s->RxXferSize  = Size;
 1036              		.loc 1 469 5 is_stmt 1 view .LVU333
 469:Drivers/STM32F4xx_HAL_Driver/Src/stm32f4xx_hal_i2s_ex.c ****     hi2s->RxXferSize  = Size;
 1037              		.loc 1 469 23 is_stmt 0 view .LVU334
 1038 0050 ACF82A30 		strh	r3, [ip, #42]	@ movhi
 470:Drivers/STM32F4xx_HAL_Driver/Src/stm32f4xx_hal_i2s_ex.c ****     hi2s->RxXferCount = Size;
 1039              		.loc 1 470 5 is_stmt 1 view .LVU335
 470:Drivers/STM32F4xx_HAL_Driver/Src/stm32f4xx_hal_i2s_ex.c ****     hi2s->RxXferCount = Size;
 1040              		.loc 1 470 23 is_stmt 0 view .LVU336
 1041 0054 ACF83030 		strh	r3, [ip, #48]	@ movhi
 471:Drivers/STM32F4xx_HAL_Driver/Src/stm32f4xx_hal_i2s_ex.c ****   }
 1042              		.loc 1 471 5 is_stmt 1 view .LVU337
 471:Drivers/STM32F4xx_HAL_Driver/Src/stm32f4xx_hal_i2s_ex.c ****   }
 1043              		.loc 1 471 23 is_stmt 0 view .LVU338
 1044 0058 ACF83230 		strh	r3, [ip, #50]	@ movhi
 1045 005c 09E0     		b	.L105
 1046              	.L103:
 461:Drivers/STM32F4xx_HAL_Driver/Src/stm32f4xx_hal_i2s_ex.c ****     hi2s->TxXferCount = (Size << 1U);
 1047              		.loc 1 461 5 is_stmt 1 view .LVU339
 461:Drivers/STM32F4xx_HAL_Driver/Src/stm32f4xx_hal_i2s_ex.c ****     hi2s->TxXferCount = (Size << 1U);
 1048              		.loc 1 461 31 is_stmt 0 view .LVU340
 1049 005e 5B00     		lsls	r3, r3, #1
 1050              	.LVL52:
 461:Drivers/STM32F4xx_HAL_Driver/Src/stm32f4xx_hal_i2s_ex.c ****     hi2s->TxXferCount = (Size << 1U);
 1051              		.loc 1 461 31 view .LVU341
 1052 0060 9BB2     		uxth	r3, r3
 461:Drivers/STM32F4xx_HAL_Driver/Src/stm32f4xx_hal_i2s_ex.c ****     hi2s->TxXferCount = (Size << 1U);
 1053              		.loc 1 461 23 view .LVU342
 1054 0062 ACF82830 		strh	r3, [ip, #40]	@ movhi
 462:Drivers/STM32F4xx_HAL_Driver/Src/stm32f4xx_hal_i2s_ex.c ****     hi2s->RxXferSize  = (Size << 1U);
 1055              		.loc 1 462 5 is_stmt 1 view .LVU343
 462:Drivers/STM32F4xx_HAL_Driver/Src/stm32f4xx_hal_i2s_ex.c ****     hi2s->RxXferSize  = (Size << 1U);
 1056              		.loc 1 462 23 is_stmt 0 view .LVU344
 1057 0066 ACF82A30 		strh	r3, [ip, #42]	@ movhi
 463:Drivers/STM32F4xx_HAL_Driver/Src/stm32f4xx_hal_i2s_ex.c ****     hi2s->RxXferCount = (Size << 1U);
 1058              		.loc 1 463 5 is_stmt 1 view .LVU345
 463:Drivers/STM32F4xx_HAL_Driver/Src/stm32f4xx_hal_i2s_ex.c ****     hi2s->RxXferCount = (Size << 1U);
 1059              		.loc 1 463 23 is_stmt 0 view .LVU346
 1060 006a ACF83030 		strh	r3, [ip, #48]	@ movhi
 464:Drivers/STM32F4xx_HAL_Driver/Src/stm32f4xx_hal_i2s_ex.c ****   }
 1061              		.loc 1 464 5 is_stmt 1 view .LVU347
 464:Drivers/STM32F4xx_HAL_Driver/Src/stm32f4xx_hal_i2s_ex.c ****   }
 1062              		.loc 1 464 23 is_stmt 0 view .LVU348
 1063 006e ACF83230 		strh	r3, [ip, #50]	@ movhi
 1064              	.L105:
 474:Drivers/STM32F4xx_HAL_Driver/Src/stm32f4xx_hal_i2s_ex.c ****   hi2s->State     = HAL_I2S_STATE_BUSY_TX_RX;
ARM GAS  /var/folders/sd/sw6_rvdd1xd6sxxq8gkv_lph0000gn/T//cc7sexlg.s 			page 45


 1065              		.loc 1 474 3 is_stmt 1 view .LVU349
 474:Drivers/STM32F4xx_HAL_Driver/Src/stm32f4xx_hal_i2s_ex.c ****   hi2s->State     = HAL_I2S_STATE_BUSY_TX_RX;
 1066              		.loc 1 474 19 is_stmt 0 view .LVU350
 1067 0072 0023     		movs	r3, #0
 1068 0074 CCF84430 		str	r3, [ip, #68]
 475:Drivers/STM32F4xx_HAL_Driver/Src/stm32f4xx_hal_i2s_ex.c **** 
 1069              		.loc 1 475 3 is_stmt 1 view .LVU351
 475:Drivers/STM32F4xx_HAL_Driver/Src/stm32f4xx_hal_i2s_ex.c **** 
 1070              		.loc 1 475 19 is_stmt 0 view .LVU352
 1071 0078 0523     		movs	r3, #5
 1072 007a 8CF84130 		strb	r3, [ip, #65]
 478:Drivers/STM32F4xx_HAL_Driver/Src/stm32f4xx_hal_i2s_ex.c ****   {
 1073              		.loc 1 478 3 is_stmt 1 view .LVU353
 478:Drivers/STM32F4xx_HAL_Driver/Src/stm32f4xx_hal_i2s_ex.c ****   {
 1074              		.loc 1 478 18 is_stmt 0 view .LVU354
 1075 007e DCF80430 		ldr	r3, [ip, #4]
 478:Drivers/STM32F4xx_HAL_Driver/Src/stm32f4xx_hal_i2s_ex.c ****   {
 1076              		.loc 1 478 6 view .LVU355
 1077 0082 B3F5007F 		cmp	r3, #512
 1078 0086 01D0     		beq	.L106
 478:Drivers/STM32F4xx_HAL_Driver/Src/stm32f4xx_hal_i2s_ex.c ****   {
 1079              		.loc 1 478 47 discriminator 1 view .LVU356
 1080 0088 002B     		cmp	r3, #0
 1081 008a 3DD1     		bne	.L107
 1082              	.L106:
 481:Drivers/STM32F4xx_HAL_Driver/Src/stm32f4xx_hal_i2s_ex.c **** 
 1083              		.loc 1 481 5 is_stmt 1 view .LVU357
 1084 008c 414B     		ldr	r3, .L126
 1085 008e 9942     		cmp	r1, r3
 1086 0090 38D0     		beq	.L121
 1087 0092 4FF04022 		mov	r2, #1073758208
 1088              	.LVL53:
 1089              	.L108:
 481:Drivers/STM32F4xx_HAL_Driver/Src/stm32f4xx_hal_i2s_ex.c **** 
 1090              		.loc 1 481 5 is_stmt 0 discriminator 4 view .LVU358
 1091 0096 5368     		ldr	r3, [r2, #4]
 1092 0098 43F06003 		orr	r3, r3, #96
 1093 009c 5360     		str	r3, [r2, #4]
 1094              	.LVL54:
 484:Drivers/STM32F4xx_HAL_Driver/Src/stm32f4xx_hal_i2s_ex.c **** 
 1095              		.loc 1 484 5 is_stmt 1 discriminator 4 view .LVU359
 1096 009e DCF80020 		ldr	r2, [ip]
 1097 00a2 5368     		ldr	r3, [r2, #4]
 1098 00a4 43F0A003 		orr	r3, r3, #160
 1099 00a8 5360     		str	r3, [r2, #4]
 487:Drivers/STM32F4xx_HAL_Driver/Src/stm32f4xx_hal_i2s_ex.c ****     hi2s->TxXferCount--;
 1100              		.loc 1 487 5 discriminator 4 view .LVU360
 487:Drivers/STM32F4xx_HAL_Driver/Src/stm32f4xx_hal_i2s_ex.c ****     hi2s->TxXferCount--;
 1101              		.loc 1 487 32 is_stmt 0 discriminator 4 view .LVU361
 1102 00aa DCF82430 		ldr	r3, [ip, #36]
 487:Drivers/STM32F4xx_HAL_Driver/Src/stm32f4xx_hal_i2s_ex.c ****     hi2s->TxXferCount--;
 1103              		.loc 1 487 44 discriminator 4 view .LVU362
 1104 00ae 9A1C     		adds	r2, r3, #2
 1105 00b0 CCF82420 		str	r2, [ip, #36]
 487:Drivers/STM32F4xx_HAL_Driver/Src/stm32f4xx_hal_i2s_ex.c ****     hi2s->TxXferCount--;
 1106              		.loc 1 487 9 discriminator 4 view .LVU363
 1107 00b4 DCF80020 		ldr	r2, [ip]
ARM GAS  /var/folders/sd/sw6_rvdd1xd6sxxq8gkv_lph0000gn/T//cc7sexlg.s 			page 46


 487:Drivers/STM32F4xx_HAL_Driver/Src/stm32f4xx_hal_i2s_ex.c ****     hi2s->TxXferCount--;
 1108              		.loc 1 487 27 discriminator 4 view .LVU364
 1109 00b8 1B88     		ldrh	r3, [r3]
 487:Drivers/STM32F4xx_HAL_Driver/Src/stm32f4xx_hal_i2s_ex.c ****     hi2s->TxXferCount--;
 1110              		.loc 1 487 24 discriminator 4 view .LVU365
 1111 00ba D360     		str	r3, [r2, #12]
 488:Drivers/STM32F4xx_HAL_Driver/Src/stm32f4xx_hal_i2s_ex.c **** 
 1112              		.loc 1 488 5 is_stmt 1 discriminator 4 view .LVU366
 488:Drivers/STM32F4xx_HAL_Driver/Src/stm32f4xx_hal_i2s_ex.c **** 
 1113              		.loc 1 488 9 is_stmt 0 discriminator 4 view .LVU367
 1114 00bc BCF82A30 		ldrh	r3, [ip, #42]
 1115 00c0 9BB2     		uxth	r3, r3
 488:Drivers/STM32F4xx_HAL_Driver/Src/stm32f4xx_hal_i2s_ex.c **** 
 1116              		.loc 1 488 22 discriminator 4 view .LVU368
 1117 00c2 013B     		subs	r3, r3, #1
 1118 00c4 9BB2     		uxth	r3, r3
 1119 00c6 ACF82A30 		strh	r3, [ip, #42]	@ movhi
 490:Drivers/STM32F4xx_HAL_Driver/Src/stm32f4xx_hal_i2s_ex.c ****     {
 1120              		.loc 1 490 5 is_stmt 1 discriminator 4 view .LVU369
 490:Drivers/STM32F4xx_HAL_Driver/Src/stm32f4xx_hal_i2s_ex.c ****     {
 1121              		.loc 1 490 13 is_stmt 0 discriminator 4 view .LVU370
 1122 00ca BCF82A30 		ldrh	r3, [ip, #42]
 1123 00ce 9BB2     		uxth	r3, r3
 490:Drivers/STM32F4xx_HAL_Driver/Src/stm32f4xx_hal_i2s_ex.c ****     {
 1124              		.loc 1 490 8 discriminator 4 view .LVU371
 1125 00d0 2BB9     		cbnz	r3, .L109
 493:Drivers/STM32F4xx_HAL_Driver/Src/stm32f4xx_hal_i2s_ex.c ****     }
 1126              		.loc 1 493 7 is_stmt 1 view .LVU372
 1127 00d2 DCF80020 		ldr	r2, [ip]
 1128 00d6 5368     		ldr	r3, [r2, #4]
 1129 00d8 23F0A003 		bic	r3, r3, #160
 1130 00dc 5360     		str	r3, [r2, #4]
 1131              	.L109:
 516:Drivers/STM32F4xx_HAL_Driver/Src/stm32f4xx_hal_i2s_ex.c **** 
 1132              		.loc 1 516 3 view .LVU373
 1133 00de DCF80020 		ldr	r2, [ip]
 1134 00e2 2C4B     		ldr	r3, .L126
 1135 00e4 9A42     		cmp	r2, r3
 1136 00e6 4BD0     		beq	.L122
 1137 00e8 4FF04022 		mov	r2, #1073758208
 1138              	.L113:
 516:Drivers/STM32F4xx_HAL_Driver/Src/stm32f4xx_hal_i2s_ex.c **** 
 1139              		.loc 1 516 3 is_stmt 0 discriminator 4 view .LVU374
 1140 00ec D369     		ldr	r3, [r2, #28]
 1141 00ee 43F48063 		orr	r3, r3, #1024
 1142 00f2 D361     		str	r3, [r2, #28]
 519:Drivers/STM32F4xx_HAL_Driver/Src/stm32f4xx_hal_i2s_ex.c **** 
 1143              		.loc 1 519 3 is_stmt 1 discriminator 4 view .LVU375
 1144 00f4 DCF80020 		ldr	r2, [ip]
 1145 00f8 D369     		ldr	r3, [r2, #28]
 1146 00fa 43F48063 		orr	r3, r3, #1024
 1147 00fe D361     		str	r3, [r2, #28]
 435:Drivers/STM32F4xx_HAL_Driver/Src/stm32f4xx_hal_i2s_ex.c **** 
 1148              		.loc 1 435 21 is_stmt 0 discriminator 4 view .LVU376
 1149 0100 0020     		movs	r0, #0
 1150 0102 40E0     		b	.L101
 1151              	.LVL55:
ARM GAS  /var/folders/sd/sw6_rvdd1xd6sxxq8gkv_lph0000gn/T//cc7sexlg.s 			page 47


 1152              	.L121:
 481:Drivers/STM32F4xx_HAL_Driver/Src/stm32f4xx_hal_i2s_ex.c **** 
 1153              		.loc 1 481 5 view .LVU377
 1154 0104 244A     		ldr	r2, .L126+4
 1155              	.LVL56:
 481:Drivers/STM32F4xx_HAL_Driver/Src/stm32f4xx_hal_i2s_ex.c **** 
 1156              		.loc 1 481 5 view .LVU378
 1157 0106 C6E7     		b	.L108
 1158              	.LVL57:
 1159              	.L107:
 499:Drivers/STM32F4xx_HAL_Driver/Src/stm32f4xx_hal_i2s_ex.c **** 
 1160              		.loc 1 499 5 is_stmt 1 view .LVU379
 1161 0108 224B     		ldr	r3, .L126
 1162 010a 9942     		cmp	r1, r3
 1163 010c 31D0     		beq	.L123
 1164 010e 4FF04022 		mov	r2, #1073758208
 1165              	.LVL58:
 1166              	.L110:
 499:Drivers/STM32F4xx_HAL_Driver/Src/stm32f4xx_hal_i2s_ex.c **** 
 1167              		.loc 1 499 5 is_stmt 0 discriminator 4 view .LVU380
 1168 0112 5368     		ldr	r3, [r2, #4]
 1169 0114 43F0A003 		orr	r3, r3, #160
 1170 0118 5360     		str	r3, [r2, #4]
 1171              	.LVL59:
 502:Drivers/STM32F4xx_HAL_Driver/Src/stm32f4xx_hal_i2s_ex.c **** 
 1172              		.loc 1 502 5 is_stmt 1 discriminator 4 view .LVU381
 1173 011a DCF80020 		ldr	r2, [ip]
 1174 011e 5368     		ldr	r3, [r2, #4]
 1175 0120 43F06003 		orr	r3, r3, #96
 1176 0124 5360     		str	r3, [r2, #4]
 505:Drivers/STM32F4xx_HAL_Driver/Src/stm32f4xx_hal_i2s_ex.c ****     hi2s->TxXferCount--;
 1177              		.loc 1 505 5 discriminator 4 view .LVU382
 505:Drivers/STM32F4xx_HAL_Driver/Src/stm32f4xx_hal_i2s_ex.c ****     hi2s->TxXferCount--;
 1178              		.loc 1 505 41 is_stmt 0 discriminator 4 view .LVU383
 1179 0126 DCF82430 		ldr	r3, [ip, #36]
 505:Drivers/STM32F4xx_HAL_Driver/Src/stm32f4xx_hal_i2s_ex.c ****     hi2s->TxXferCount--;
 1180              		.loc 1 505 53 discriminator 4 view .LVU384
 1181 012a 9A1C     		adds	r2, r3, #2
 1182 012c CCF82420 		str	r2, [ip, #36]
 505:Drivers/STM32F4xx_HAL_Driver/Src/stm32f4xx_hal_i2s_ex.c ****     hi2s->TxXferCount--;
 1183              		.loc 1 505 36 discriminator 4 view .LVU385
 1184 0130 1A88     		ldrh	r2, [r3]
 505:Drivers/STM32F4xx_HAL_Driver/Src/stm32f4xx_hal_i2s_ex.c ****     hi2s->TxXferCount--;
 1185              		.loc 1 505 5 discriminator 4 view .LVU386
 1186 0132 DCF80010 		ldr	r1, [ip]
 1187 0136 174B     		ldr	r3, .L126
 1188 0138 9942     		cmp	r1, r3
 1189 013a 1CD0     		beq	.L124
 505:Drivers/STM32F4xx_HAL_Driver/Src/stm32f4xx_hal_i2s_ex.c ****     hi2s->TxXferCount--;
 1190              		.loc 1 505 5 view .LVU387
 1191 013c 4FF04023 		mov	r3, #1073758208
 1192              	.L111:
 505:Drivers/STM32F4xx_HAL_Driver/Src/stm32f4xx_hal_i2s_ex.c ****     hi2s->TxXferCount--;
 1193              		.loc 1 505 33 discriminator 4 view .LVU388
 1194 0140 DA60     		str	r2, [r3, #12]
 506:Drivers/STM32F4xx_HAL_Driver/Src/stm32f4xx_hal_i2s_ex.c **** 
 1195              		.loc 1 506 5 is_stmt 1 discriminator 4 view .LVU389
ARM GAS  /var/folders/sd/sw6_rvdd1xd6sxxq8gkv_lph0000gn/T//cc7sexlg.s 			page 48


 506:Drivers/STM32F4xx_HAL_Driver/Src/stm32f4xx_hal_i2s_ex.c **** 
 1196              		.loc 1 506 9 is_stmt 0 discriminator 4 view .LVU390
 1197 0142 BCF82A30 		ldrh	r3, [ip, #42]
 1198 0146 9BB2     		uxth	r3, r3
 506:Drivers/STM32F4xx_HAL_Driver/Src/stm32f4xx_hal_i2s_ex.c **** 
 1199              		.loc 1 506 22 discriminator 4 view .LVU391
 1200 0148 013B     		subs	r3, r3, #1
 1201 014a 9BB2     		uxth	r3, r3
 1202 014c ACF82A30 		strh	r3, [ip, #42]	@ movhi
 508:Drivers/STM32F4xx_HAL_Driver/Src/stm32f4xx_hal_i2s_ex.c ****     {
 1203              		.loc 1 508 5 is_stmt 1 discriminator 4 view .LVU392
 508:Drivers/STM32F4xx_HAL_Driver/Src/stm32f4xx_hal_i2s_ex.c ****     {
 1204              		.loc 1 508 13 is_stmt 0 discriminator 4 view .LVU393
 1205 0150 BCF82A30 		ldrh	r3, [ip, #42]
 1206 0154 9BB2     		uxth	r3, r3
 508:Drivers/STM32F4xx_HAL_Driver/Src/stm32f4xx_hal_i2s_ex.c ****     {
 1207              		.loc 1 508 8 discriminator 4 view .LVU394
 1208 0156 002B     		cmp	r3, #0
 1209 0158 C1D1     		bne	.L109
 511:Drivers/STM32F4xx_HAL_Driver/Src/stm32f4xx_hal_i2s_ex.c ****     }
 1210              		.loc 1 511 7 is_stmt 1 view .LVU395
 1211 015a DCF80020 		ldr	r2, [ip]
 1212 015e 0D4B     		ldr	r3, .L126
 1213 0160 9A42     		cmp	r2, r3
 1214 0162 0BD0     		beq	.L125
 1215 0164 4FF04022 		mov	r2, #1073758208
 1216              	.L112:
 511:Drivers/STM32F4xx_HAL_Driver/Src/stm32f4xx_hal_i2s_ex.c ****     }
 1217              		.loc 1 511 7 is_stmt 0 discriminator 4 view .LVU396
 1218 0168 5368     		ldr	r3, [r2, #4]
 1219 016a 23F0A003 		bic	r3, r3, #160
 1220 016e 5360     		str	r3, [r2, #4]
 1221 0170 B5E7     		b	.L109
 1222              	.LVL60:
 1223              	.L123:
 499:Drivers/STM32F4xx_HAL_Driver/Src/stm32f4xx_hal_i2s_ex.c **** 
 1224              		.loc 1 499 5 view .LVU397
 1225 0172 094A     		ldr	r2, .L126+4
 1226              	.LVL61:
 499:Drivers/STM32F4xx_HAL_Driver/Src/stm32f4xx_hal_i2s_ex.c **** 
 1227              		.loc 1 499 5 view .LVU398
 1228 0174 CDE7     		b	.L110
 1229              	.LVL62:
 1230              	.L124:
 505:Drivers/STM32F4xx_HAL_Driver/Src/stm32f4xx_hal_i2s_ex.c ****     hi2s->TxXferCount--;
 1231              		.loc 1 505 5 view .LVU399
 1232 0176 A3F58063 		sub	r3, r3, #1024
 1233 017a E1E7     		b	.L111
 1234              	.L125:
 511:Drivers/STM32F4xx_HAL_Driver/Src/stm32f4xx_hal_i2s_ex.c ****     }
 1235              		.loc 1 511 7 view .LVU400
 1236 017c 064A     		ldr	r2, .L126+4
 1237 017e F3E7     		b	.L112
 1238              	.L122:
 516:Drivers/STM32F4xx_HAL_Driver/Src/stm32f4xx_hal_i2s_ex.c **** 
 1239              		.loc 1 516 3 view .LVU401
 1240 0180 054A     		ldr	r2, .L126+4
ARM GAS  /var/folders/sd/sw6_rvdd1xd6sxxq8gkv_lph0000gn/T//cc7sexlg.s 			page 49


 1241 0182 B3E7     		b	.L113
 1242              	.LVL63:
 1243              	.L114:
 439:Drivers/STM32F4xx_HAL_Driver/Src/stm32f4xx_hal_i2s_ex.c ****     goto error;
 1244              		.loc 1 439 15 view .LVU402
 1245 0184 0220     		movs	r0, #2
 1246              	.LVL64:
 1247              	.L101:
 522:Drivers/STM32F4xx_HAL_Driver/Src/stm32f4xx_hal_i2s_ex.c ****   return errorcode;
 1248              		.loc 1 522 3 is_stmt 1 view .LVU403
 522:Drivers/STM32F4xx_HAL_Driver/Src/stm32f4xx_hal_i2s_ex.c ****   return errorcode;
 1249              		.loc 1 522 3 view .LVU404
 1250 0186 0023     		movs	r3, #0
 1251 0188 8CF84030 		strb	r3, [ip, #64]
 522:Drivers/STM32F4xx_HAL_Driver/Src/stm32f4xx_hal_i2s_ex.c ****   return errorcode;
 1252              		.loc 1 522 3 view .LVU405
 523:Drivers/STM32F4xx_HAL_Driver/Src/stm32f4xx_hal_i2s_ex.c **** }
 1253              		.loc 1 523 3 view .LVU406
 523:Drivers/STM32F4xx_HAL_Driver/Src/stm32f4xx_hal_i2s_ex.c **** }
 1254              		.loc 1 523 10 is_stmt 0 view .LVU407
 1255 018c 7047     		bx	lr
 1256              	.LVL65:
 1257              	.L115:
 449:Drivers/STM32F4xx_HAL_Driver/Src/stm32f4xx_hal_i2s_ex.c **** 
 1258              		.loc 1 449 3 view .LVU408
 1259 018e 0220     		movs	r0, #2
 1260              	.L102:
 524:Drivers/STM32F4xx_HAL_Driver/Src/stm32f4xx_hal_i2s_ex.c **** 
 1261              		.loc 1 524 1 view .LVU409
 1262 0190 7047     		bx	lr
 1263              	.L127:
 1264 0192 00BF     		.align	2
 1265              	.L126:
 1266 0194 00380040 		.word	1073756160
 1267 0198 00340040 		.word	1073755136
 1268              		.cfi_endproc
 1269              	.LFE131:
 1271              		.section	.text.HAL_I2SEx_TransmitReceive_DMA,"ax",%progbits
 1272              		.align	1
 1273              		.global	HAL_I2SEx_TransmitReceive_DMA
 1274              		.syntax unified
 1275              		.thumb
 1276              		.thumb_func
 1277              		.fpu fpv4-sp-d16
 1279              	HAL_I2SEx_TransmitReceive_DMA:
 1280              	.LVL66:
 1281              	.LFB132:
 545:Drivers/STM32F4xx_HAL_Driver/Src/stm32f4xx_hal_i2s_ex.c ****   uint32_t *tmp = NULL;
 1282              		.loc 1 545 1 is_stmt 1 view -0
 1283              		.cfi_startproc
 1284              		@ args = 0, pretend = 0, frame = 8
 1285              		@ frame_needed = 0, uses_anonymous_args = 0
 545:Drivers/STM32F4xx_HAL_Driver/Src/stm32f4xx_hal_i2s_ex.c ****   uint32_t *tmp = NULL;
 1286              		.loc 1 545 1 is_stmt 0 view .LVU411
 1287 0000 70B5     		push	{r4, r5, r6, lr}
 1288              	.LCFI6:
 1289              		.cfi_def_cfa_offset 16
ARM GAS  /var/folders/sd/sw6_rvdd1xd6sxxq8gkv_lph0000gn/T//cc7sexlg.s 			page 50


 1290              		.cfi_offset 4, -16
 1291              		.cfi_offset 5, -12
 1292              		.cfi_offset 6, -8
 1293              		.cfi_offset 14, -4
 1294 0002 82B0     		sub	sp, sp, #8
 1295              	.LCFI7:
 1296              		.cfi_def_cfa_offset 24
 1297 0004 0446     		mov	r4, r0
 546:Drivers/STM32F4xx_HAL_Driver/Src/stm32f4xx_hal_i2s_ex.c ****   uint32_t tmp1 = 0U;
 1298              		.loc 1 546 3 is_stmt 1 view .LVU412
 1299              	.LVL67:
 547:Drivers/STM32F4xx_HAL_Driver/Src/stm32f4xx_hal_i2s_ex.c ****   HAL_StatusTypeDef errorcode = HAL_OK;
 1300              		.loc 1 547 3 view .LVU413
 548:Drivers/STM32F4xx_HAL_Driver/Src/stm32f4xx_hal_i2s_ex.c **** 
 1301              		.loc 1 548 3 view .LVU414
 550:Drivers/STM32F4xx_HAL_Driver/Src/stm32f4xx_hal_i2s_ex.c ****   {
 1302              		.loc 1 550 3 view .LVU415
 550:Drivers/STM32F4xx_HAL_Driver/Src/stm32f4xx_hal_i2s_ex.c ****   {
 1303              		.loc 1 550 11 is_stmt 0 view .LVU416
 1304 0006 90F84100 		ldrb	r0, [r0, #65]	@ zero_extendqisi2
 1305              	.LVL68:
 550:Drivers/STM32F4xx_HAL_Driver/Src/stm32f4xx_hal_i2s_ex.c ****   {
 1306              		.loc 1 550 11 view .LVU417
 1307 000a C0B2     		uxtb	r0, r0
 550:Drivers/STM32F4xx_HAL_Driver/Src/stm32f4xx_hal_i2s_ex.c ****   {
 1308              		.loc 1 550 6 view .LVU418
 1309 000c 0128     		cmp	r0, #1
 1310 000e 40F0D280 		bne	.L143
 1311 0012 0D46     		mov	r5, r1
 1312 0014 1646     		mov	r6, r2
 556:Drivers/STM32F4xx_HAL_Driver/Src/stm32f4xx_hal_i2s_ex.c ****   {
 1313              		.loc 1 556 3 is_stmt 1 view .LVU419
 556:Drivers/STM32F4xx_HAL_Driver/Src/stm32f4xx_hal_i2s_ex.c ****   {
 1314              		.loc 1 556 6 is_stmt 0 view .LVU420
 1315 0016 0029     		cmp	r1, #0
 1316 0018 00F0D180 		beq	.L130
 556:Drivers/STM32F4xx_HAL_Driver/Src/stm32f4xx_hal_i2s_ex.c ****   {
 1317              		.loc 1 556 25 discriminator 1 view .LVU421
 1318 001c 002A     		cmp	r2, #0
 1319 001e 00F0CE80 		beq	.L130
 556:Drivers/STM32F4xx_HAL_Driver/Src/stm32f4xx_hal_i2s_ex.c ****   {
 1320              		.loc 1 556 46 discriminator 2 view .LVU422
 1321 0022 002B     		cmp	r3, #0
 1322 0024 00F0CB80 		beq	.L130
 562:Drivers/STM32F4xx_HAL_Driver/Src/stm32f4xx_hal_i2s_ex.c **** 
 1323              		.loc 1 562 3 is_stmt 1 view .LVU423
 562:Drivers/STM32F4xx_HAL_Driver/Src/stm32f4xx_hal_i2s_ex.c **** 
 1324              		.loc 1 562 3 view .LVU424
 1325 0028 94F84020 		ldrb	r2, [r4, #64]	@ zero_extendqisi2
 1326              	.LVL69:
 562:Drivers/STM32F4xx_HAL_Driver/Src/stm32f4xx_hal_i2s_ex.c **** 
 1327              		.loc 1 562 3 is_stmt 0 view .LVU425
 1328 002c D2B2     		uxtb	r2, r2
 1329 002e 012A     		cmp	r2, #1
 1330 0030 00F0CB80 		beq	.L144
 562:Drivers/STM32F4xx_HAL_Driver/Src/stm32f4xx_hal_i2s_ex.c **** 
 1331              		.loc 1 562 3 is_stmt 1 discriminator 2 view .LVU426
ARM GAS  /var/folders/sd/sw6_rvdd1xd6sxxq8gkv_lph0000gn/T//cc7sexlg.s 			page 51


 1332 0034 0122     		movs	r2, #1
 1333 0036 84F84020 		strb	r2, [r4, #64]
 562:Drivers/STM32F4xx_HAL_Driver/Src/stm32f4xx_hal_i2s_ex.c **** 
 1334              		.loc 1 562 3 discriminator 2 view .LVU427
 564:Drivers/STM32F4xx_HAL_Driver/Src/stm32f4xx_hal_i2s_ex.c ****   hi2s->pRxBuffPtr = pRxData;
 1335              		.loc 1 564 3 discriminator 2 view .LVU428
 564:Drivers/STM32F4xx_HAL_Driver/Src/stm32f4xx_hal_i2s_ex.c ****   hi2s->pRxBuffPtr = pRxData;
 1336              		.loc 1 564 20 is_stmt 0 discriminator 2 view .LVU429
 1337 003a 6162     		str	r1, [r4, #36]
 565:Drivers/STM32F4xx_HAL_Driver/Src/stm32f4xx_hal_i2s_ex.c **** 
 1338              		.loc 1 565 3 is_stmt 1 discriminator 2 view .LVU430
 565:Drivers/STM32F4xx_HAL_Driver/Src/stm32f4xx_hal_i2s_ex.c **** 
 1339              		.loc 1 565 20 is_stmt 0 discriminator 2 view .LVU431
 1340 003c E662     		str	r6, [r4, #44]
 567:Drivers/STM32F4xx_HAL_Driver/Src/stm32f4xx_hal_i2s_ex.c ****   /* Check the Data format: When a 16-bit data frame or a 16-bit data frame extended
 1341              		.loc 1 567 3 is_stmt 1 discriminator 2 view .LVU432
 567:Drivers/STM32F4xx_HAL_Driver/Src/stm32f4xx_hal_i2s_ex.c ****   /* Check the Data format: When a 16-bit data frame or a 16-bit data frame extended
 1342              		.loc 1 567 14 is_stmt 0 discriminator 2 view .LVU433
 1343 003e 2268     		ldr	r2, [r4]
 567:Drivers/STM32F4xx_HAL_Driver/Src/stm32f4xx_hal_i2s_ex.c ****   /* Check the Data format: When a 16-bit data frame or a 16-bit data frame extended
 1344              		.loc 1 567 24 discriminator 2 view .LVU434
 1345 0040 D269     		ldr	r2, [r2, #28]
 567:Drivers/STM32F4xx_HAL_Driver/Src/stm32f4xx_hal_i2s_ex.c ****   /* Check the Data format: When a 16-bit data frame or a 16-bit data frame extended
 1346              		.loc 1 567 8 discriminator 2 view .LVU435
 1347 0042 02F00702 		and	r2, r2, #7
 1348              	.LVL70:
 572:Drivers/STM32F4xx_HAL_Driver/Src/stm32f4xx_hal_i2s_ex.c ****   {
 1349              		.loc 1 572 3 is_stmt 1 discriminator 2 view .LVU436
 572:Drivers/STM32F4xx_HAL_Driver/Src/stm32f4xx_hal_i2s_ex.c ****   {
 1350              		.loc 1 572 6 is_stmt 0 discriminator 2 view .LVU437
 1351 0046 032A     		cmp	r2, #3
 1352 0048 06D0     		beq	.L131
 572:Drivers/STM32F4xx_HAL_Driver/Src/stm32f4xx_hal_i2s_ex.c ****   {
 1353              		.loc 1 572 36 discriminator 1 view .LVU438
 1354 004a 052A     		cmp	r2, #5
 1355 004c 04D0     		beq	.L131
 581:Drivers/STM32F4xx_HAL_Driver/Src/stm32f4xx_hal_i2s_ex.c ****     hi2s->TxXferCount = Size;
 1356              		.loc 1 581 5 is_stmt 1 view .LVU439
 581:Drivers/STM32F4xx_HAL_Driver/Src/stm32f4xx_hal_i2s_ex.c ****     hi2s->TxXferCount = Size;
 1357              		.loc 1 581 23 is_stmt 0 view .LVU440
 1358 004e 2385     		strh	r3, [r4, #40]	@ movhi
 582:Drivers/STM32F4xx_HAL_Driver/Src/stm32f4xx_hal_i2s_ex.c ****     hi2s->RxXferSize  = Size;
 1359              		.loc 1 582 5 is_stmt 1 view .LVU441
 582:Drivers/STM32F4xx_HAL_Driver/Src/stm32f4xx_hal_i2s_ex.c ****     hi2s->RxXferSize  = Size;
 1360              		.loc 1 582 23 is_stmt 0 view .LVU442
 1361 0050 6385     		strh	r3, [r4, #42]	@ movhi
 583:Drivers/STM32F4xx_HAL_Driver/Src/stm32f4xx_hal_i2s_ex.c ****     hi2s->RxXferCount = Size;
 1362              		.loc 1 583 5 is_stmt 1 view .LVU443
 583:Drivers/STM32F4xx_HAL_Driver/Src/stm32f4xx_hal_i2s_ex.c ****     hi2s->RxXferCount = Size;
 1363              		.loc 1 583 23 is_stmt 0 view .LVU444
 1364 0052 2386     		strh	r3, [r4, #48]	@ movhi
 584:Drivers/STM32F4xx_HAL_Driver/Src/stm32f4xx_hal_i2s_ex.c ****   }
 1365              		.loc 1 584 5 is_stmt 1 view .LVU445
 584:Drivers/STM32F4xx_HAL_Driver/Src/stm32f4xx_hal_i2s_ex.c ****   }
 1366              		.loc 1 584 23 is_stmt 0 view .LVU446
 1367 0054 6386     		strh	r3, [r4, #50]	@ movhi
 1368 0056 05E0     		b	.L133
ARM GAS  /var/folders/sd/sw6_rvdd1xd6sxxq8gkv_lph0000gn/T//cc7sexlg.s 			page 52


 1369              	.L131:
 574:Drivers/STM32F4xx_HAL_Driver/Src/stm32f4xx_hal_i2s_ex.c ****     hi2s->TxXferCount = (Size << 1U);
 1370              		.loc 1 574 5 is_stmt 1 view .LVU447
 574:Drivers/STM32F4xx_HAL_Driver/Src/stm32f4xx_hal_i2s_ex.c ****     hi2s->TxXferCount = (Size << 1U);
 1371              		.loc 1 574 31 is_stmt 0 view .LVU448
 1372 0058 5B00     		lsls	r3, r3, #1
 1373              	.LVL71:
 574:Drivers/STM32F4xx_HAL_Driver/Src/stm32f4xx_hal_i2s_ex.c ****     hi2s->TxXferCount = (Size << 1U);
 1374              		.loc 1 574 31 view .LVU449
 1375 005a 9BB2     		uxth	r3, r3
 574:Drivers/STM32F4xx_HAL_Driver/Src/stm32f4xx_hal_i2s_ex.c ****     hi2s->TxXferCount = (Size << 1U);
 1376              		.loc 1 574 23 view .LVU450
 1377 005c 2385     		strh	r3, [r4, #40]	@ movhi
 575:Drivers/STM32F4xx_HAL_Driver/Src/stm32f4xx_hal_i2s_ex.c ****     hi2s->RxXferSize  = (Size << 1U);
 1378              		.loc 1 575 5 is_stmt 1 view .LVU451
 575:Drivers/STM32F4xx_HAL_Driver/Src/stm32f4xx_hal_i2s_ex.c ****     hi2s->RxXferSize  = (Size << 1U);
 1379              		.loc 1 575 23 is_stmt 0 view .LVU452
 1380 005e 6385     		strh	r3, [r4, #42]	@ movhi
 576:Drivers/STM32F4xx_HAL_Driver/Src/stm32f4xx_hal_i2s_ex.c ****     hi2s->RxXferCount = (Size << 1U);
 1381              		.loc 1 576 5 is_stmt 1 view .LVU453
 576:Drivers/STM32F4xx_HAL_Driver/Src/stm32f4xx_hal_i2s_ex.c ****     hi2s->RxXferCount = (Size << 1U);
 1382              		.loc 1 576 23 is_stmt 0 view .LVU454
 1383 0060 2386     		strh	r3, [r4, #48]	@ movhi
 577:Drivers/STM32F4xx_HAL_Driver/Src/stm32f4xx_hal_i2s_ex.c ****   }
 1384              		.loc 1 577 5 is_stmt 1 view .LVU455
 577:Drivers/STM32F4xx_HAL_Driver/Src/stm32f4xx_hal_i2s_ex.c ****   }
 1385              		.loc 1 577 23 is_stmt 0 view .LVU456
 1386 0062 6386     		strh	r3, [r4, #50]	@ movhi
 1387              	.L133:
 587:Drivers/STM32F4xx_HAL_Driver/Src/stm32f4xx_hal_i2s_ex.c ****   hi2s->State     = HAL_I2S_STATE_BUSY_TX_RX;
 1388              		.loc 1 587 3 is_stmt 1 view .LVU457
 587:Drivers/STM32F4xx_HAL_Driver/Src/stm32f4xx_hal_i2s_ex.c ****   hi2s->State     = HAL_I2S_STATE_BUSY_TX_RX;
 1389              		.loc 1 587 19 is_stmt 0 view .LVU458
 1390 0064 0023     		movs	r3, #0
 1391 0066 6364     		str	r3, [r4, #68]
 588:Drivers/STM32F4xx_HAL_Driver/Src/stm32f4xx_hal_i2s_ex.c **** 
 1392              		.loc 1 588 3 is_stmt 1 view .LVU459
 588:Drivers/STM32F4xx_HAL_Driver/Src/stm32f4xx_hal_i2s_ex.c **** 
 1393              		.loc 1 588 19 is_stmt 0 view .LVU460
 1394 0068 0522     		movs	r2, #5
 1395              	.LVL72:
 588:Drivers/STM32F4xx_HAL_Driver/Src/stm32f4xx_hal_i2s_ex.c **** 
 1396              		.loc 1 588 19 view .LVU461
 1397 006a 84F84120 		strb	r2, [r4, #65]
 591:Drivers/STM32F4xx_HAL_Driver/Src/stm32f4xx_hal_i2s_ex.c **** 
 1398              		.loc 1 591 3 is_stmt 1 view .LVU462
 591:Drivers/STM32F4xx_HAL_Driver/Src/stm32f4xx_hal_i2s_ex.c **** 
 1399              		.loc 1 591 7 is_stmt 0 view .LVU463
 1400 006e E26B     		ldr	r2, [r4, #60]
 591:Drivers/STM32F4xx_HAL_Driver/Src/stm32f4xx_hal_i2s_ex.c **** 
 1401              		.loc 1 591 38 view .LVU464
 1402 0070 5749     		ldr	r1, .L161
 1403              	.LVL73:
 591:Drivers/STM32F4xx_HAL_Driver/Src/stm32f4xx_hal_i2s_ex.c **** 
 1404              		.loc 1 591 38 view .LVU465
 1405 0072 1164     		str	r1, [r2, #64]
 594:Drivers/STM32F4xx_HAL_Driver/Src/stm32f4xx_hal_i2s_ex.c **** 
ARM GAS  /var/folders/sd/sw6_rvdd1xd6sxxq8gkv_lph0000gn/T//cc7sexlg.s 			page 53


 1406              		.loc 1 594 3 is_stmt 1 view .LVU466
 594:Drivers/STM32F4xx_HAL_Driver/Src/stm32f4xx_hal_i2s_ex.c **** 
 1407              		.loc 1 594 7 is_stmt 0 view .LVU467
 1408 0074 E26B     		ldr	r2, [r4, #60]
 594:Drivers/STM32F4xx_HAL_Driver/Src/stm32f4xx_hal_i2s_ex.c **** 
 1409              		.loc 1 594 35 view .LVU468
 1410 0076 5749     		ldr	r1, .L161+4
 1411 0078 D163     		str	r1, [r2, #60]
 597:Drivers/STM32F4xx_HAL_Driver/Src/stm32f4xx_hal_i2s_ex.c **** 
 1412              		.loc 1 597 3 is_stmt 1 view .LVU469
 597:Drivers/STM32F4xx_HAL_Driver/Src/stm32f4xx_hal_i2s_ex.c **** 
 1413              		.loc 1 597 7 is_stmt 0 view .LVU470
 1414 007a E16B     		ldr	r1, [r4, #60]
 597:Drivers/STM32F4xx_HAL_Driver/Src/stm32f4xx_hal_i2s_ex.c **** 
 1415              		.loc 1 597 35 view .LVU471
 1416 007c 564A     		ldr	r2, .L161+8
 1417 007e CA64     		str	r2, [r1, #76]
 600:Drivers/STM32F4xx_HAL_Driver/Src/stm32f4xx_hal_i2s_ex.c **** 
 1418              		.loc 1 600 3 is_stmt 1 view .LVU472
 600:Drivers/STM32F4xx_HAL_Driver/Src/stm32f4xx_hal_i2s_ex.c **** 
 1419              		.loc 1 600 7 is_stmt 0 view .LVU473
 1420 0080 A16B     		ldr	r1, [r4, #56]
 600:Drivers/STM32F4xx_HAL_Driver/Src/stm32f4xx_hal_i2s_ex.c **** 
 1421              		.loc 1 600 39 view .LVU474
 1422 0082 0B64     		str	r3, [r1, #64]
 603:Drivers/STM32F4xx_HAL_Driver/Src/stm32f4xx_hal_i2s_ex.c **** 
 1423              		.loc 1 603 3 is_stmt 1 view .LVU475
 603:Drivers/STM32F4xx_HAL_Driver/Src/stm32f4xx_hal_i2s_ex.c **** 
 1424              		.loc 1 603 7 is_stmt 0 view .LVU476
 1425 0084 A16B     		ldr	r1, [r4, #56]
 603:Drivers/STM32F4xx_HAL_Driver/Src/stm32f4xx_hal_i2s_ex.c **** 
 1426              		.loc 1 603 35 view .LVU477
 1427 0086 CB63     		str	r3, [r1, #60]
 606:Drivers/STM32F4xx_HAL_Driver/Src/stm32f4xx_hal_i2s_ex.c **** 
 1428              		.loc 1 606 3 is_stmt 1 view .LVU478
 606:Drivers/STM32F4xx_HAL_Driver/Src/stm32f4xx_hal_i2s_ex.c **** 
 1429              		.loc 1 606 7 is_stmt 0 view .LVU479
 1430 0088 A36B     		ldr	r3, [r4, #56]
 606:Drivers/STM32F4xx_HAL_Driver/Src/stm32f4xx_hal_i2s_ex.c **** 
 1431              		.loc 1 606 35 view .LVU480
 1432 008a DA64     		str	r2, [r3, #76]
 608:Drivers/STM32F4xx_HAL_Driver/Src/stm32f4xx_hal_i2s_ex.c ****   /* Check if the I2S_MODE_MASTER_TX or I2S_MODE_SLAVE_TX Mode is selected */
 1433              		.loc 1 608 3 is_stmt 1 view .LVU481
 608:Drivers/STM32F4xx_HAL_Driver/Src/stm32f4xx_hal_i2s_ex.c ****   /* Check if the I2S_MODE_MASTER_TX or I2S_MODE_SLAVE_TX Mode is selected */
 1434              		.loc 1 608 14 is_stmt 0 view .LVU482
 1435 008c 2268     		ldr	r2, [r4]
 608:Drivers/STM32F4xx_HAL_Driver/Src/stm32f4xx_hal_i2s_ex.c ****   /* Check if the I2S_MODE_MASTER_TX or I2S_MODE_SLAVE_TX Mode is selected */
 1436              		.loc 1 608 24 view .LVU483
 1437 008e D369     		ldr	r3, [r2, #28]
 608:Drivers/STM32F4xx_HAL_Driver/Src/stm32f4xx_hal_i2s_ex.c ****   /* Check if the I2S_MODE_MASTER_TX or I2S_MODE_SLAVE_TX Mode is selected */
 1438              		.loc 1 608 8 view .LVU484
 1439 0090 03F44073 		and	r3, r3, #768
 1440              	.LVL74:
 610:Drivers/STM32F4xx_HAL_Driver/Src/stm32f4xx_hal_i2s_ex.c ****   {
 1441              		.loc 1 610 3 is_stmt 1 view .LVU485
 610:Drivers/STM32F4xx_HAL_Driver/Src/stm32f4xx_hal_i2s_ex.c ****   {
 1442              		.loc 1 610 6 is_stmt 0 view .LVU486
ARM GAS  /var/folders/sd/sw6_rvdd1xd6sxxq8gkv_lph0000gn/T//cc7sexlg.s 			page 54


 1443 0094 B3F5007F 		cmp	r3, #512
 1444 0098 01D0     		beq	.L134
 610:Drivers/STM32F4xx_HAL_Driver/Src/stm32f4xx_hal_i2s_ex.c ****   {
 1445              		.loc 1 610 36 discriminator 1 view .LVU487
 1446 009a 002B     		cmp	r3, #0
 1447 009c 3ED1     		bne	.L135
 1448              	.L134:
 613:Drivers/STM32F4xx_HAL_Driver/Src/stm32f4xx_hal_i2s_ex.c ****     HAL_DMA_Start_IT(hi2s->hdmarx, (uint32_t)&I2SxEXT(hi2s->Instance)->DR, *(uint32_t *)tmp, hi2s->
 1449              		.loc 1 613 5 is_stmt 1 view .LVU488
 1450              	.LVL75:
 614:Drivers/STM32F4xx_HAL_Driver/Src/stm32f4xx_hal_i2s_ex.c **** 
 1451              		.loc 1 614 5 view .LVU489
 1452 009e E06B     		ldr	r0, [r4, #60]
 614:Drivers/STM32F4xx_HAL_Driver/Src/stm32f4xx_hal_i2s_ex.c **** 
 1453              		.loc 1 614 47 is_stmt 0 view .LVU490
 1454 00a0 4E4B     		ldr	r3, .L161+12
 1455              	.LVL76:
 614:Drivers/STM32F4xx_HAL_Driver/Src/stm32f4xx_hal_i2s_ex.c **** 
 1456              		.loc 1 614 47 view .LVU491
 1457 00a2 9A42     		cmp	r2, r3
 1458 00a4 33D0     		beq	.L154
 1459 00a6 4FF04021 		mov	r1, #1073758208
 1460              	.L136:
 614:Drivers/STM32F4xx_HAL_Driver/Src/stm32f4xx_hal_i2s_ex.c **** 
 1461              		.loc 1 614 98 discriminator 4 view .LVU492
 1462 00aa 238E     		ldrh	r3, [r4, #48]
 614:Drivers/STM32F4xx_HAL_Driver/Src/stm32f4xx_hal_i2s_ex.c **** 
 1463              		.loc 1 614 5 discriminator 4 view .LVU493
 1464 00ac 9BB2     		uxth	r3, r3
 1465 00ae 3246     		mov	r2, r6
 1466 00b0 0C31     		adds	r1, r1, #12
 1467 00b2 FFF7FEFF 		bl	HAL_DMA_Start_IT
 1468              	.LVL77:
 617:Drivers/STM32F4xx_HAL_Driver/Src/stm32f4xx_hal_i2s_ex.c **** 
 1469              		.loc 1 617 5 is_stmt 1 discriminator 4 view .LVU494
 1470 00b6 2268     		ldr	r2, [r4]
 1471 00b8 484B     		ldr	r3, .L161+12
 1472 00ba 9A42     		cmp	r2, r3
 1473 00bc 29D0     		beq	.L155
 617:Drivers/STM32F4xx_HAL_Driver/Src/stm32f4xx_hal_i2s_ex.c **** 
 1474              		.loc 1 617 5 is_stmt 0 view .LVU495
 1475 00be 4FF04022 		mov	r2, #1073758208
 1476              	.L137:
 617:Drivers/STM32F4xx_HAL_Driver/Src/stm32f4xx_hal_i2s_ex.c **** 
 1477              		.loc 1 617 5 discriminator 4 view .LVU496
 1478 00c2 5368     		ldr	r3, [r2, #4]
 1479 00c4 43F00103 		orr	r3, r3, #1
 1480 00c8 5360     		str	r3, [r2, #4]
 620:Drivers/STM32F4xx_HAL_Driver/Src/stm32f4xx_hal_i2s_ex.c ****     HAL_DMA_Start_IT(hi2s->hdmatx, *(uint32_t *)tmp, (uint32_t)&hi2s->Instance->DR, hi2s->TxXferSiz
 1481              		.loc 1 620 5 is_stmt 1 discriminator 4 view .LVU497
 1482              	.LVL78:
 621:Drivers/STM32F4xx_HAL_Driver/Src/stm32f4xx_hal_i2s_ex.c **** 
 1483              		.loc 1 621 5 discriminator 4 view .LVU498
 621:Drivers/STM32F4xx_HAL_Driver/Src/stm32f4xx_hal_i2s_ex.c **** 
 1484              		.loc 1 621 69 is_stmt 0 discriminator 4 view .LVU499
 1485 00ca 2268     		ldr	r2, [r4]
 621:Drivers/STM32F4xx_HAL_Driver/Src/stm32f4xx_hal_i2s_ex.c **** 
ARM GAS  /var/folders/sd/sw6_rvdd1xd6sxxq8gkv_lph0000gn/T//cc7sexlg.s 			page 55


 1486              		.loc 1 621 89 discriminator 4 view .LVU500
 1487 00cc 238D     		ldrh	r3, [r4, #40]
 621:Drivers/STM32F4xx_HAL_Driver/Src/stm32f4xx_hal_i2s_ex.c **** 
 1488              		.loc 1 621 5 discriminator 4 view .LVU501
 1489 00ce 9BB2     		uxth	r3, r3
 1490 00d0 0C32     		adds	r2, r2, #12
 1491 00d2 2946     		mov	r1, r5
 1492 00d4 A06B     		ldr	r0, [r4, #56]
 1493 00d6 FFF7FEFF 		bl	HAL_DMA_Start_IT
 1494              	.LVL79:
 624:Drivers/STM32F4xx_HAL_Driver/Src/stm32f4xx_hal_i2s_ex.c **** 
 1495              		.loc 1 624 5 is_stmt 1 discriminator 4 view .LVU502
 1496 00da 2268     		ldr	r2, [r4]
 1497 00dc 5368     		ldr	r3, [r2, #4]
 1498 00de 43F00203 		orr	r3, r3, #2
 1499 00e2 5360     		str	r3, [r2, #4]
 627:Drivers/STM32F4xx_HAL_Driver/Src/stm32f4xx_hal_i2s_ex.c ****     {
 1500              		.loc 1 627 5 discriminator 4 view .LVU503
 627:Drivers/STM32F4xx_HAL_Driver/Src/stm32f4xx_hal_i2s_ex.c ****     {
 1501              		.loc 1 627 14 is_stmt 0 discriminator 4 view .LVU504
 1502 00e4 2368     		ldr	r3, [r4]
 627:Drivers/STM32F4xx_HAL_Driver/Src/stm32f4xx_hal_i2s_ex.c ****     {
 1503              		.loc 1 627 24 discriminator 4 view .LVU505
 1504 00e6 DA69     		ldr	r2, [r3, #28]
 627:Drivers/STM32F4xx_HAL_Driver/Src/stm32f4xx_hal_i2s_ex.c ****     {
 1505              		.loc 1 627 8 discriminator 4 view .LVU506
 1506 00e8 12F4806F 		tst	r2, #1024
 1507 00ec 69D1     		bne	.L147
 630:Drivers/STM32F4xx_HAL_Driver/Src/stm32f4xx_hal_i2s_ex.c **** 
 1508              		.loc 1 630 7 is_stmt 1 view .LVU507
 1509 00ee 3B4A     		ldr	r2, .L161+12
 1510 00f0 9342     		cmp	r3, r2
 1511 00f2 10D0     		beq	.L156
 1512 00f4 4FF04022 		mov	r2, #1073758208
 1513              	.L138:
 630:Drivers/STM32F4xx_HAL_Driver/Src/stm32f4xx_hal_i2s_ex.c **** 
 1514              		.loc 1 630 7 is_stmt 0 discriminator 4 view .LVU508
 1515 00f8 D369     		ldr	r3, [r2, #28]
 1516 00fa 43F48063 		orr	r3, r3, #1024
 1517 00fe D361     		str	r3, [r2, #28]
 633:Drivers/STM32F4xx_HAL_Driver/Src/stm32f4xx_hal_i2s_ex.c ****     }
 1518              		.loc 1 633 7 is_stmt 1 discriminator 4 view .LVU509
 1519 0100 2268     		ldr	r2, [r4]
 1520 0102 D369     		ldr	r3, [r2, #28]
 1521 0104 43F48063 		orr	r3, r3, #1024
 1522 0108 D361     		str	r3, [r2, #28]
 548:Drivers/STM32F4xx_HAL_Driver/Src/stm32f4xx_hal_i2s_ex.c **** 
 1523              		.loc 1 548 21 is_stmt 0 discriminator 4 view .LVU510
 1524 010a 0020     		movs	r0, #0
 1525 010c 54E0     		b	.L129
 1526              	.LVL80:
 1527              	.L154:
 614:Drivers/STM32F4xx_HAL_Driver/Src/stm32f4xx_hal_i2s_ex.c **** 
 1528              		.loc 1 614 47 view .LVU511
 1529 010e 3449     		ldr	r1, .L161+16
 1530 0110 CBE7     		b	.L136
 1531              	.L155:
ARM GAS  /var/folders/sd/sw6_rvdd1xd6sxxq8gkv_lph0000gn/T//cc7sexlg.s 			page 56


 617:Drivers/STM32F4xx_HAL_Driver/Src/stm32f4xx_hal_i2s_ex.c **** 
 1532              		.loc 1 617 5 view .LVU512
 1533 0112 334A     		ldr	r2, .L161+16
 1534 0114 D5E7     		b	.L137
 1535              	.LVL81:
 1536              	.L156:
 630:Drivers/STM32F4xx_HAL_Driver/Src/stm32f4xx_hal_i2s_ex.c **** 
 1537              		.loc 1 630 7 view .LVU513
 1538 0116 A2F58062 		sub	r2, r2, #1024
 1539 011a EDE7     		b	.L138
 1540              	.LVL82:
 1541              	.L135:
 639:Drivers/STM32F4xx_HAL_Driver/Src/stm32f4xx_hal_i2s_ex.c ****     {
 1542              		.loc 1 639 5 is_stmt 1 view .LVU514
 639:Drivers/STM32F4xx_HAL_Driver/Src/stm32f4xx_hal_i2s_ex.c ****     {
 1543              		.loc 1 639 24 is_stmt 0 view .LVU515
 1544 011c D369     		ldr	r3, [r2, #28]
 1545              	.LVL83:
 639:Drivers/STM32F4xx_HAL_Driver/Src/stm32f4xx_hal_i2s_ex.c ****     {
 1546              		.loc 1 639 34 view .LVU516
 1547 011e 03F44073 		and	r3, r3, #768
 639:Drivers/STM32F4xx_HAL_Driver/Src/stm32f4xx_hal_i2s_ex.c ****     {
 1548              		.loc 1 639 8 view .LVU517
 1549 0122 B3F5407F 		cmp	r3, #768
 1550 0126 37D0     		beq	.L157
 1551              	.L139:
 643:Drivers/STM32F4xx_HAL_Driver/Src/stm32f4xx_hal_i2s_ex.c ****     }
 1552              		.loc 1 643 7 is_stmt 1 discriminator 1 view .LVU518
 646:Drivers/STM32F4xx_HAL_Driver/Src/stm32f4xx_hal_i2s_ex.c ****     HAL_DMA_Start_IT(hi2s->hdmatx, *(uint32_t *)tmp, (uint32_t)&I2SxEXT(hi2s->Instance)->DR, hi2s->
 1553              		.loc 1 646 5 discriminator 1 view .LVU519
 1554              	.LVL84:
 647:Drivers/STM32F4xx_HAL_Driver/Src/stm32f4xx_hal_i2s_ex.c **** 
 1555              		.loc 1 647 5 discriminator 1 view .LVU520
 1556 0128 A06B     		ldr	r0, [r4, #56]
 647:Drivers/STM32F4xx_HAL_Driver/Src/stm32f4xx_hal_i2s_ex.c **** 
 1557              		.loc 1 647 65 is_stmt 0 discriminator 1 view .LVU521
 1558 012a 2C4B     		ldr	r3, .L161+12
 1559 012c 9A42     		cmp	r2, r3
 1560 012e 3BD0     		beq	.L158
 647:Drivers/STM32F4xx_HAL_Driver/Src/stm32f4xx_hal_i2s_ex.c **** 
 1561              		.loc 1 647 65 view .LVU522
 1562 0130 4FF04022 		mov	r2, #1073758208
 1563              	.L140:
 647:Drivers/STM32F4xx_HAL_Driver/Src/stm32f4xx_hal_i2s_ex.c **** 
 1564              		.loc 1 647 98 discriminator 4 view .LVU523
 1565 0134 238D     		ldrh	r3, [r4, #40]
 647:Drivers/STM32F4xx_HAL_Driver/Src/stm32f4xx_hal_i2s_ex.c **** 
 1566              		.loc 1 647 5 discriminator 4 view .LVU524
 1567 0136 9BB2     		uxth	r3, r3
 1568 0138 0C32     		adds	r2, r2, #12
 1569 013a 2946     		mov	r1, r5
 1570 013c FFF7FEFF 		bl	HAL_DMA_Start_IT
 1571              	.LVL85:
 650:Drivers/STM32F4xx_HAL_Driver/Src/stm32f4xx_hal_i2s_ex.c **** 
 1572              		.loc 1 650 5 is_stmt 1 discriminator 4 view .LVU525
 1573 0140 2268     		ldr	r2, [r4]
 1574 0142 264B     		ldr	r3, .L161+12
ARM GAS  /var/folders/sd/sw6_rvdd1xd6sxxq8gkv_lph0000gn/T//cc7sexlg.s 			page 57


 1575 0144 9A42     		cmp	r2, r3
 1576 0146 31D0     		beq	.L159
 650:Drivers/STM32F4xx_HAL_Driver/Src/stm32f4xx_hal_i2s_ex.c **** 
 1577              		.loc 1 650 5 is_stmt 0 view .LVU526
 1578 0148 4FF04022 		mov	r2, #1073758208
 1579              	.L141:
 650:Drivers/STM32F4xx_HAL_Driver/Src/stm32f4xx_hal_i2s_ex.c **** 
 1580              		.loc 1 650 5 discriminator 4 view .LVU527
 1581 014c 5368     		ldr	r3, [r2, #4]
 1582 014e 43F00203 		orr	r3, r3, #2
 1583 0152 5360     		str	r3, [r2, #4]
 653:Drivers/STM32F4xx_HAL_Driver/Src/stm32f4xx_hal_i2s_ex.c ****     HAL_DMA_Start_IT(hi2s->hdmarx, (uint32_t)&hi2s->Instance->DR, *(uint32_t *)tmp, hi2s->RxXferSiz
 1584              		.loc 1 653 5 is_stmt 1 discriminator 4 view .LVU528
 1585              	.LVL86:
 654:Drivers/STM32F4xx_HAL_Driver/Src/stm32f4xx_hal_i2s_ex.c **** 
 1586              		.loc 1 654 5 discriminator 4 view .LVU529
 654:Drivers/STM32F4xx_HAL_Driver/Src/stm32f4xx_hal_i2s_ex.c **** 
 1587              		.loc 1 654 51 is_stmt 0 discriminator 4 view .LVU530
 1588 0154 2168     		ldr	r1, [r4]
 654:Drivers/STM32F4xx_HAL_Driver/Src/stm32f4xx_hal_i2s_ex.c **** 
 1589              		.loc 1 654 89 discriminator 4 view .LVU531
 1590 0156 238E     		ldrh	r3, [r4, #48]
 654:Drivers/STM32F4xx_HAL_Driver/Src/stm32f4xx_hal_i2s_ex.c **** 
 1591              		.loc 1 654 5 discriminator 4 view .LVU532
 1592 0158 9BB2     		uxth	r3, r3
 1593 015a 3246     		mov	r2, r6
 1594 015c 0C31     		adds	r1, r1, #12
 1595 015e E06B     		ldr	r0, [r4, #60]
 1596 0160 FFF7FEFF 		bl	HAL_DMA_Start_IT
 1597              	.LVL87:
 657:Drivers/STM32F4xx_HAL_Driver/Src/stm32f4xx_hal_i2s_ex.c **** 
 1598              		.loc 1 657 5 is_stmt 1 discriminator 4 view .LVU533
 1599 0164 2268     		ldr	r2, [r4]
 1600 0166 5368     		ldr	r3, [r2, #4]
 1601 0168 43F00103 		orr	r3, r3, #1
 1602 016c 5360     		str	r3, [r2, #4]
 660:Drivers/STM32F4xx_HAL_Driver/Src/stm32f4xx_hal_i2s_ex.c ****     {
 1603              		.loc 1 660 5 discriminator 4 view .LVU534
 660:Drivers/STM32F4xx_HAL_Driver/Src/stm32f4xx_hal_i2s_ex.c ****     {
 1604              		.loc 1 660 14 is_stmt 0 discriminator 4 view .LVU535
 1605 016e 2368     		ldr	r3, [r4]
 660:Drivers/STM32F4xx_HAL_Driver/Src/stm32f4xx_hal_i2s_ex.c ****     {
 1606              		.loc 1 660 24 discriminator 4 view .LVU536
 1607 0170 DA69     		ldr	r2, [r3, #28]
 660:Drivers/STM32F4xx_HAL_Driver/Src/stm32f4xx_hal_i2s_ex.c ****     {
 1608              		.loc 1 660 8 discriminator 4 view .LVU537
 1609 0172 12F4806F 		tst	r2, #1024
 1610 0176 26D1     		bne	.L151
 663:Drivers/STM32F4xx_HAL_Driver/Src/stm32f4xx_hal_i2s_ex.c ****       /* Enable I2S peripheral before the I2Sext */
 1611              		.loc 1 663 7 is_stmt 1 view .LVU538
 1612 0178 184A     		ldr	r2, .L161+12
 1613 017a 9342     		cmp	r3, r2
 1614 017c 18D0     		beq	.L160
 1615 017e 4FF04022 		mov	r2, #1073758208
 1616              	.L142:
 663:Drivers/STM32F4xx_HAL_Driver/Src/stm32f4xx_hal_i2s_ex.c ****       /* Enable I2S peripheral before the I2Sext */
 1617              		.loc 1 663 7 is_stmt 0 discriminator 4 view .LVU539
ARM GAS  /var/folders/sd/sw6_rvdd1xd6sxxq8gkv_lph0000gn/T//cc7sexlg.s 			page 58


 1618 0182 D369     		ldr	r3, [r2, #28]
 1619 0184 43F48063 		orr	r3, r3, #1024
 1620 0188 D361     		str	r3, [r2, #28]
 665:Drivers/STM32F4xx_HAL_Driver/Src/stm32f4xx_hal_i2s_ex.c ****     }
 1621              		.loc 1 665 7 is_stmt 1 discriminator 4 view .LVU540
 1622 018a 2268     		ldr	r2, [r4]
 1623 018c D369     		ldr	r3, [r2, #28]
 1624 018e 43F48063 		orr	r3, r3, #1024
 1625 0192 D361     		str	r3, [r2, #28]
 548:Drivers/STM32F4xx_HAL_Driver/Src/stm32f4xx_hal_i2s_ex.c **** 
 1626              		.loc 1 548 21 is_stmt 0 discriminator 4 view .LVU541
 1627 0194 0020     		movs	r0, #0
 1628 0196 0FE0     		b	.L129
 1629              	.LVL88:
 1630              	.L157:
 643:Drivers/STM32F4xx_HAL_Driver/Src/stm32f4xx_hal_i2s_ex.c ****     }
 1631              		.loc 1 643 7 is_stmt 1 view .LVU542
 1632              	.LBB9:
 643:Drivers/STM32F4xx_HAL_Driver/Src/stm32f4xx_hal_i2s_ex.c ****     }
 1633              		.loc 1 643 7 view .LVU543
 1634 0198 0023     		movs	r3, #0
 1635 019a 0193     		str	r3, [sp, #4]
 643:Drivers/STM32F4xx_HAL_Driver/Src/stm32f4xx_hal_i2s_ex.c ****     }
 1636              		.loc 1 643 7 view .LVU544
 1637 019c D368     		ldr	r3, [r2, #12]
 1638 019e 0193     		str	r3, [sp, #4]
 643:Drivers/STM32F4xx_HAL_Driver/Src/stm32f4xx_hal_i2s_ex.c ****     }
 1639              		.loc 1 643 7 view .LVU545
 1640 01a0 9368     		ldr	r3, [r2, #8]
 1641 01a2 0193     		str	r3, [sp, #4]
 643:Drivers/STM32F4xx_HAL_Driver/Src/stm32f4xx_hal_i2s_ex.c ****     }
 1642              		.loc 1 643 7 view .LVU546
 1643 01a4 019B     		ldr	r3, [sp, #4]
 1644 01a6 BFE7     		b	.L139
 1645              	.LVL89:
 1646              	.L158:
 643:Drivers/STM32F4xx_HAL_Driver/Src/stm32f4xx_hal_i2s_ex.c ****     }
 1647              		.loc 1 643 7 is_stmt 0 view .LVU547
 1648              	.LBE9:
 647:Drivers/STM32F4xx_HAL_Driver/Src/stm32f4xx_hal_i2s_ex.c **** 
 1649              		.loc 1 647 65 view .LVU548
 1650 01a8 0D4A     		ldr	r2, .L161+16
 1651 01aa C3E7     		b	.L140
 1652              	.L159:
 650:Drivers/STM32F4xx_HAL_Driver/Src/stm32f4xx_hal_i2s_ex.c **** 
 1653              		.loc 1 650 5 view .LVU549
 1654 01ac 0C4A     		ldr	r2, .L161+16
 1655 01ae CDE7     		b	.L141
 1656              	.LVL90:
 1657              	.L160:
 663:Drivers/STM32F4xx_HAL_Driver/Src/stm32f4xx_hal_i2s_ex.c ****       /* Enable I2S peripheral before the I2Sext */
 1658              		.loc 1 663 7 view .LVU550
 1659 01b0 A2F58062 		sub	r2, r2, #1024
 1660 01b4 E5E7     		b	.L142
 1661              	.LVL91:
 1662              	.L143:
 552:Drivers/STM32F4xx_HAL_Driver/Src/stm32f4xx_hal_i2s_ex.c ****     goto error;
ARM GAS  /var/folders/sd/sw6_rvdd1xd6sxxq8gkv_lph0000gn/T//cc7sexlg.s 			page 59


 1663              		.loc 1 552 15 view .LVU551
 1664 01b6 0220     		movs	r0, #2
 1665              	.LVL92:
 1666              	.L129:
 670:Drivers/STM32F4xx_HAL_Driver/Src/stm32f4xx_hal_i2s_ex.c ****   return errorcode;
 1667              		.loc 1 670 3 is_stmt 1 view .LVU552
 670:Drivers/STM32F4xx_HAL_Driver/Src/stm32f4xx_hal_i2s_ex.c ****   return errorcode;
 1668              		.loc 1 670 3 view .LVU553
 1669 01b8 0023     		movs	r3, #0
 1670 01ba 84F84030 		strb	r3, [r4, #64]
 670:Drivers/STM32F4xx_HAL_Driver/Src/stm32f4xx_hal_i2s_ex.c ****   return errorcode;
 1671              		.loc 1 670 3 view .LVU554
 671:Drivers/STM32F4xx_HAL_Driver/Src/stm32f4xx_hal_i2s_ex.c **** }
 1672              		.loc 1 671 3 view .LVU555
 1673              	.LVL93:
 1674              	.L130:
 672:Drivers/STM32F4xx_HAL_Driver/Src/stm32f4xx_hal_i2s_ex.c **** 
 1675              		.loc 1 672 1 is_stmt 0 view .LVU556
 1676 01be 02B0     		add	sp, sp, #8
 1677              	.LCFI8:
 1678              		.cfi_remember_state
 1679              		.cfi_def_cfa_offset 16
 1680              		@ sp needed
 1681 01c0 70BD     		pop	{r4, r5, r6, pc}
 1682              	.LVL94:
 1683              	.L147:
 1684              	.LCFI9:
 1685              		.cfi_restore_state
 548:Drivers/STM32F4xx_HAL_Driver/Src/stm32f4xx_hal_i2s_ex.c **** 
 1686              		.loc 1 548 21 view .LVU557
 1687 01c2 0020     		movs	r0, #0
 1688 01c4 F8E7     		b	.L129
 1689              	.LVL95:
 1690              	.L151:
 548:Drivers/STM32F4xx_HAL_Driver/Src/stm32f4xx_hal_i2s_ex.c **** 
 1691              		.loc 1 548 21 view .LVU558
 1692 01c6 0020     		movs	r0, #0
 1693 01c8 F6E7     		b	.L129
 1694              	.LVL96:
 1695              	.L144:
 562:Drivers/STM32F4xx_HAL_Driver/Src/stm32f4xx_hal_i2s_ex.c **** 
 1696              		.loc 1 562 3 view .LVU559
 1697 01ca 0220     		movs	r0, #2
 1698 01cc F7E7     		b	.L130
 1699              	.L162:
 1700 01ce 00BF     		.align	2
 1701              	.L161:
 1702 01d0 00000000 		.word	I2SEx_TxRxDMAHalfCplt
 1703 01d4 00000000 		.word	I2SEx_TxRxDMACplt
 1704 01d8 00000000 		.word	I2SEx_TxRxDMAError
 1705 01dc 00380040 		.word	1073756160
 1706 01e0 00340040 		.word	1073755136
 1707              		.cfi_endproc
 1708              	.LFE132:
 1710              		.section	.text.HAL_I2SEx_TxRxHalfCpltCallback,"ax",%progbits
 1711              		.align	1
 1712              		.weak	HAL_I2SEx_TxRxHalfCpltCallback
ARM GAS  /var/folders/sd/sw6_rvdd1xd6sxxq8gkv_lph0000gn/T//cc7sexlg.s 			page 60


 1713              		.syntax unified
 1714              		.thumb
 1715              		.thumb_func
 1716              		.fpu fpv4-sp-d16
 1718              	HAL_I2SEx_TxRxHalfCpltCallback:
 1719              	.LVL97:
 1720              	.LFB134:
 826:Drivers/STM32F4xx_HAL_Driver/Src/stm32f4xx_hal_i2s_ex.c ****   /* Prevent unused argument(s) compilation warning */
 1721              		.loc 1 826 1 is_stmt 1 view -0
 1722              		.cfi_startproc
 1723              		@ args = 0, pretend = 0, frame = 0
 1724              		@ frame_needed = 0, uses_anonymous_args = 0
 1725              		@ link register save eliminated.
 828:Drivers/STM32F4xx_HAL_Driver/Src/stm32f4xx_hal_i2s_ex.c **** 
 1726              		.loc 1 828 3 view .LVU561
 833:Drivers/STM32F4xx_HAL_Driver/Src/stm32f4xx_hal_i2s_ex.c **** 
 1727              		.loc 1 833 1 is_stmt 0 view .LVU562
 1728 0000 7047     		bx	lr
 1729              		.cfi_endproc
 1730              	.LFE134:
 1732              		.section	.text.I2SEx_TxRxDMAHalfCplt,"ax",%progbits
 1733              		.align	1
 1734              		.syntax unified
 1735              		.thumb
 1736              		.thumb_func
 1737              		.fpu fpv4-sp-d16
 1739              	I2SEx_TxRxDMAHalfCplt:
 1740              	.LVL98:
 1741              	.LFB136:
 869:Drivers/STM32F4xx_HAL_Driver/Src/stm32f4xx_hal_i2s_ex.c ****   I2S_HandleTypeDef *hi2s = (I2S_HandleTypeDef *)((DMA_HandleTypeDef *)hdma)->Parent;
 1742              		.loc 1 869 1 is_stmt 1 view -0
 1743              		.cfi_startproc
 1744              		@ args = 0, pretend = 0, frame = 0
 1745              		@ frame_needed = 0, uses_anonymous_args = 0
 869:Drivers/STM32F4xx_HAL_Driver/Src/stm32f4xx_hal_i2s_ex.c ****   I2S_HandleTypeDef *hi2s = (I2S_HandleTypeDef *)((DMA_HandleTypeDef *)hdma)->Parent;
 1746              		.loc 1 869 1 is_stmt 0 view .LVU564
 1747 0000 08B5     		push	{r3, lr}
 1748              	.LCFI10:
 1749              		.cfi_def_cfa_offset 8
 1750              		.cfi_offset 3, -8
 1751              		.cfi_offset 14, -4
 870:Drivers/STM32F4xx_HAL_Driver/Src/stm32f4xx_hal_i2s_ex.c **** 
 1752              		.loc 1 870 3 is_stmt 1 view .LVU565
 1753              	.LVL99:
 876:Drivers/STM32F4xx_HAL_Driver/Src/stm32f4xx_hal_i2s_ex.c **** #endif /* USE_HAL_I2S_REGISTER_CALLBACKS */
 1754              		.loc 1 876 3 view .LVU566
 1755 0002 806B     		ldr	r0, [r0, #56]
 1756              	.LVL100:
 876:Drivers/STM32F4xx_HAL_Driver/Src/stm32f4xx_hal_i2s_ex.c **** #endif /* USE_HAL_I2S_REGISTER_CALLBACKS */
 1757              		.loc 1 876 3 is_stmt 0 view .LVU567
 1758 0004 FFF7FEFF 		bl	HAL_I2SEx_TxRxHalfCpltCallback
 1759              	.LVL101:
 878:Drivers/STM32F4xx_HAL_Driver/Src/stm32f4xx_hal_i2s_ex.c **** 
 1760              		.loc 1 878 1 view .LVU568
 1761 0008 08BD     		pop	{r3, pc}
 1762              		.cfi_endproc
 1763              	.LFE136:
ARM GAS  /var/folders/sd/sw6_rvdd1xd6sxxq8gkv_lph0000gn/T//cc7sexlg.s 			page 61


 1765              		.section	.text.HAL_I2SEx_TxRxCpltCallback,"ax",%progbits
 1766              		.align	1
 1767              		.weak	HAL_I2SEx_TxRxCpltCallback
 1768              		.syntax unified
 1769              		.thumb
 1770              		.thumb_func
 1771              		.fpu fpv4-sp-d16
 1773              	HAL_I2SEx_TxRxCpltCallback:
 1774              	.LVL102:
 1775              	.LFB135:
 841:Drivers/STM32F4xx_HAL_Driver/Src/stm32f4xx_hal_i2s_ex.c ****   /* Prevent unused argument(s) compilation warning */
 1776              		.loc 1 841 1 is_stmt 1 view -0
 1777              		.cfi_startproc
 1778              		@ args = 0, pretend = 0, frame = 0
 1779              		@ frame_needed = 0, uses_anonymous_args = 0
 1780              		@ link register save eliminated.
 843:Drivers/STM32F4xx_HAL_Driver/Src/stm32f4xx_hal_i2s_ex.c **** 
 1781              		.loc 1 843 3 view .LVU570
 848:Drivers/STM32F4xx_HAL_Driver/Src/stm32f4xx_hal_i2s_ex.c **** 
 1782              		.loc 1 848 1 is_stmt 0 view .LVU571
 1783 0000 7047     		bx	lr
 1784              		.cfi_endproc
 1785              	.LFE135:
 1787              		.section	.text.I2SEx_TxRxDMACplt,"ax",%progbits
 1788              		.align	1
 1789              		.syntax unified
 1790              		.thumb
 1791              		.thumb_func
 1792              		.fpu fpv4-sp-d16
 1794              	I2SEx_TxRxDMACplt:
 1795              	.LVL103:
 1796              	.LFB137:
 887:Drivers/STM32F4xx_HAL_Driver/Src/stm32f4xx_hal_i2s_ex.c ****   I2S_HandleTypeDef *hi2s = (I2S_HandleTypeDef *)((DMA_HandleTypeDef *)hdma)->Parent;
 1797              		.loc 1 887 1 is_stmt 1 view -0
 1798              		.cfi_startproc
 1799              		@ args = 0, pretend = 0, frame = 0
 1800              		@ frame_needed = 0, uses_anonymous_args = 0
 887:Drivers/STM32F4xx_HAL_Driver/Src/stm32f4xx_hal_i2s_ex.c ****   I2S_HandleTypeDef *hi2s = (I2S_HandleTypeDef *)((DMA_HandleTypeDef *)hdma)->Parent;
 1801              		.loc 1 887 1 is_stmt 0 view .LVU573
 1802 0000 08B5     		push	{r3, lr}
 1803              	.LCFI11:
 1804              		.cfi_def_cfa_offset 8
 1805              		.cfi_offset 3, -8
 1806              		.cfi_offset 14, -4
 1807 0002 0346     		mov	r3, r0
 888:Drivers/STM32F4xx_HAL_Driver/Src/stm32f4xx_hal_i2s_ex.c **** 
 1808              		.loc 1 888 3 is_stmt 1 view .LVU574
 888:Drivers/STM32F4xx_HAL_Driver/Src/stm32f4xx_hal_i2s_ex.c **** 
 1809              		.loc 1 888 22 is_stmt 0 view .LVU575
 1810 0004 806B     		ldr	r0, [r0, #56]
 1811              	.LVL104:
 891:Drivers/STM32F4xx_HAL_Driver/Src/stm32f4xx_hal_i2s_ex.c ****   {
 1812              		.loc 1 891 3 is_stmt 1 view .LVU576
 891:Drivers/STM32F4xx_HAL_Driver/Src/stm32f4xx_hal_i2s_ex.c ****   {
 1813              		.loc 1 891 17 is_stmt 0 view .LVU577
 1814 0006 DB69     		ldr	r3, [r3, #28]
 1815              	.LVL105:
ARM GAS  /var/folders/sd/sw6_rvdd1xd6sxxq8gkv_lph0000gn/T//cc7sexlg.s 			page 62


 891:Drivers/STM32F4xx_HAL_Driver/Src/stm32f4xx_hal_i2s_ex.c ****   {
 1816              		.loc 1 891 6 view .LVU578
 1817 0008 F3B9     		cbnz	r3, .L168
 893:Drivers/STM32F4xx_HAL_Driver/Src/stm32f4xx_hal_i2s_ex.c ****         ((hi2s->Instance->I2SCFGR & SPI_I2SCFGR_I2SCFG) == I2S_MODE_SLAVE_TX))
 1818              		.loc 1 893 5 is_stmt 1 view .LVU579
 893:Drivers/STM32F4xx_HAL_Driver/Src/stm32f4xx_hal_i2s_ex.c ****         ((hi2s->Instance->I2SCFGR & SPI_I2SCFGR_I2SCFG) == I2S_MODE_SLAVE_TX))
 1819              		.loc 1 893 15 is_stmt 0 view .LVU580
 1820 000a 0268     		ldr	r2, [r0]
 893:Drivers/STM32F4xx_HAL_Driver/Src/stm32f4xx_hal_i2s_ex.c ****         ((hi2s->Instance->I2SCFGR & SPI_I2SCFGR_I2SCFG) == I2S_MODE_SLAVE_TX))
 1821              		.loc 1 893 25 view .LVU581
 1822 000c D369     		ldr	r3, [r2, #28]
 893:Drivers/STM32F4xx_HAL_Driver/Src/stm32f4xx_hal_i2s_ex.c ****         ((hi2s->Instance->I2SCFGR & SPI_I2SCFGR_I2SCFG) == I2S_MODE_SLAVE_TX))
 1823              		.loc 1 893 35 view .LVU582
 1824 000e 03F44073 		and	r3, r3, #768
 893:Drivers/STM32F4xx_HAL_Driver/Src/stm32f4xx_hal_i2s_ex.c ****         ((hi2s->Instance->I2SCFGR & SPI_I2SCFGR_I2SCFG) == I2S_MODE_SLAVE_TX))
 1825              		.loc 1 893 8 view .LVU583
 1826 0012 B3F5007F 		cmp	r3, #512
 1827 0016 03D0     		beq	.L169
 894:Drivers/STM32F4xx_HAL_Driver/Src/stm32f4xx_hal_i2s_ex.c ****     /* Disable Tx & Rx DMA Requests */
 1828              		.loc 1 894 25 discriminator 1 view .LVU584
 1829 0018 D369     		ldr	r3, [r2, #28]
 893:Drivers/STM32F4xx_HAL_Driver/Src/stm32f4xx_hal_i2s_ex.c ****         ((hi2s->Instance->I2SCFGR & SPI_I2SCFGR_I2SCFG) == I2S_MODE_SLAVE_TX))
 1830              		.loc 1 893 80 discriminator 1 view .LVU585
 1831 001a 13F4407F 		tst	r3, #768
 1832 001e 18D1     		bne	.L170
 1833              	.L169:
 897:Drivers/STM32F4xx_HAL_Driver/Src/stm32f4xx_hal_i2s_ex.c ****       CLEAR_BIT(hi2s->Instance->CR2, SPI_CR2_TXDMAEN);
 1834              		.loc 1 897 7 is_stmt 1 view .LVU586
 1835 0020 144B     		ldr	r3, .L179
 1836 0022 9A42     		cmp	r2, r3
 1837 0024 13D0     		beq	.L177
 1838 0026 4FF04022 		mov	r2, #1073758208
 1839              	.L171:
 897:Drivers/STM32F4xx_HAL_Driver/Src/stm32f4xx_hal_i2s_ex.c ****       CLEAR_BIT(hi2s->Instance->CR2, SPI_CR2_TXDMAEN);
 1840              		.loc 1 897 7 is_stmt 0 discriminator 4 view .LVU587
 1841 002a 5368     		ldr	r3, [r2, #4]
 1842 002c 23F00103 		bic	r3, r3, #1
 1843 0030 5360     		str	r3, [r2, #4]
 898:Drivers/STM32F4xx_HAL_Driver/Src/stm32f4xx_hal_i2s_ex.c ****     }
 1844              		.loc 1 898 7 is_stmt 1 discriminator 4 view .LVU588
 1845 0032 0268     		ldr	r2, [r0]
 1846 0034 5368     		ldr	r3, [r2, #4]
 1847 0036 23F00203 		bic	r3, r3, #2
 1848 003a 5360     		str	r3, [r2, #4]
 1849              	.L172:
 906:Drivers/STM32F4xx_HAL_Driver/Src/stm32f4xx_hal_i2s_ex.c ****     hi2s->TxXferCount = 0U;
 1850              		.loc 1 906 5 view .LVU589
 906:Drivers/STM32F4xx_HAL_Driver/Src/stm32f4xx_hal_i2s_ex.c ****     hi2s->TxXferCount = 0U;
 1851              		.loc 1 906 23 is_stmt 0 view .LVU590
 1852 003c 0023     		movs	r3, #0
 1853 003e 4386     		strh	r3, [r0, #50]	@ movhi
 907:Drivers/STM32F4xx_HAL_Driver/Src/stm32f4xx_hal_i2s_ex.c **** 
 1854              		.loc 1 907 5 is_stmt 1 view .LVU591
 907:Drivers/STM32F4xx_HAL_Driver/Src/stm32f4xx_hal_i2s_ex.c **** 
 1855              		.loc 1 907 23 is_stmt 0 view .LVU592
 1856 0040 4385     		strh	r3, [r0, #42]	@ movhi
 909:Drivers/STM32F4xx_HAL_Driver/Src/stm32f4xx_hal_i2s_ex.c ****   }
ARM GAS  /var/folders/sd/sw6_rvdd1xd6sxxq8gkv_lph0000gn/T//cc7sexlg.s 			page 63


 1857              		.loc 1 909 5 is_stmt 1 view .LVU593
 909:Drivers/STM32F4xx_HAL_Driver/Src/stm32f4xx_hal_i2s_ex.c ****   }
 1858              		.loc 1 909 17 is_stmt 0 view .LVU594
 1859 0042 0123     		movs	r3, #1
 1860 0044 80F84130 		strb	r3, [r0, #65]
 1861              	.L168:
 916:Drivers/STM32F4xx_HAL_Driver/Src/stm32f4xx_hal_i2s_ex.c **** #endif /* USE_HAL_I2S_REGISTER_CALLBACKS */
 1862              		.loc 1 916 3 is_stmt 1 view .LVU595
 1863 0048 FFF7FEFF 		bl	HAL_I2SEx_TxRxCpltCallback
 1864              	.LVL106:
 918:Drivers/STM32F4xx_HAL_Driver/Src/stm32f4xx_hal_i2s_ex.c **** 
 1865              		.loc 1 918 1 is_stmt 0 view .LVU596
 1866 004c 08BD     		pop	{r3, pc}
 1867              	.LVL107:
 1868              	.L177:
 897:Drivers/STM32F4xx_HAL_Driver/Src/stm32f4xx_hal_i2s_ex.c ****       CLEAR_BIT(hi2s->Instance->CR2, SPI_CR2_TXDMAEN);
 1869              		.loc 1 897 7 view .LVU597
 1870 004e 0A4A     		ldr	r2, .L179+4
 1871 0050 EBE7     		b	.L171
 1872              	.L170:
 902:Drivers/STM32F4xx_HAL_Driver/Src/stm32f4xx_hal_i2s_ex.c ****       CLEAR_BIT(I2SxEXT(hi2s->Instance)->CR2, SPI_CR2_TXDMAEN);
 1873              		.loc 1 902 7 is_stmt 1 view .LVU598
 1874 0052 5368     		ldr	r3, [r2, #4]
 1875 0054 23F00103 		bic	r3, r3, #1
 1876 0058 5360     		str	r3, [r2, #4]
 903:Drivers/STM32F4xx_HAL_Driver/Src/stm32f4xx_hal_i2s_ex.c ****     }
 1877              		.loc 1 903 7 view .LVU599
 1878 005a 0268     		ldr	r2, [r0]
 1879 005c 054B     		ldr	r3, .L179
 1880 005e 9A42     		cmp	r2, r3
 1881 0060 06D0     		beq	.L178
 1882 0062 4FF04022 		mov	r2, #1073758208
 1883              	.L173:
 903:Drivers/STM32F4xx_HAL_Driver/Src/stm32f4xx_hal_i2s_ex.c ****     }
 1884              		.loc 1 903 7 is_stmt 0 discriminator 4 view .LVU600
 1885 0066 5368     		ldr	r3, [r2, #4]
 1886 0068 23F00203 		bic	r3, r3, #2
 1887 006c 5360     		str	r3, [r2, #4]
 1888 006e E5E7     		b	.L172
 1889              	.L178:
 903:Drivers/STM32F4xx_HAL_Driver/Src/stm32f4xx_hal_i2s_ex.c ****     }
 1890              		.loc 1 903 7 view .LVU601
 1891 0070 014A     		ldr	r2, .L179+4
 1892 0072 F8E7     		b	.L173
 1893              	.L180:
 1894              		.align	2
 1895              	.L179:
 1896 0074 00380040 		.word	1073756160
 1897 0078 00340040 		.word	1073755136
 1898              		.cfi_endproc
 1899              	.LFE137:
 1901              		.section	.text.I2SEx_TxISR_I2S,"ax",%progbits
 1902              		.align	1
 1903              		.syntax unified
 1904              		.thumb
 1905              		.thumb_func
 1906              		.fpu fpv4-sp-d16
ARM GAS  /var/folders/sd/sw6_rvdd1xd6sxxq8gkv_lph0000gn/T//cc7sexlg.s 			page 64


 1908              	I2SEx_TxISR_I2S:
 1909              	.LVL108:
 1910              	.LFB139:
 954:Drivers/STM32F4xx_HAL_Driver/Src/stm32f4xx_hal_i2s_ex.c ****   /* Write Data on DR register */
 1911              		.loc 1 954 1 is_stmt 1 view -0
 1912              		.cfi_startproc
 1913              		@ args = 0, pretend = 0, frame = 0
 1914              		@ frame_needed = 0, uses_anonymous_args = 0
 954:Drivers/STM32F4xx_HAL_Driver/Src/stm32f4xx_hal_i2s_ex.c ****   /* Write Data on DR register */
 1915              		.loc 1 954 1 is_stmt 0 view .LVU603
 1916 0000 08B5     		push	{r3, lr}
 1917              	.LCFI12:
 1918              		.cfi_def_cfa_offset 8
 1919              		.cfi_offset 3, -8
 1920              		.cfi_offset 14, -4
 956:Drivers/STM32F4xx_HAL_Driver/Src/stm32f4xx_hal_i2s_ex.c ****   hi2s->TxXferCount--;
 1921              		.loc 1 956 3 is_stmt 1 view .LVU604
 956:Drivers/STM32F4xx_HAL_Driver/Src/stm32f4xx_hal_i2s_ex.c ****   hi2s->TxXferCount--;
 1922              		.loc 1 956 30 is_stmt 0 view .LVU605
 1923 0002 436A     		ldr	r3, [r0, #36]
 956:Drivers/STM32F4xx_HAL_Driver/Src/stm32f4xx_hal_i2s_ex.c ****   hi2s->TxXferCount--;
 1924              		.loc 1 956 42 view .LVU606
 1925 0004 9A1C     		adds	r2, r3, #2
 1926 0006 4262     		str	r2, [r0, #36]
 956:Drivers/STM32F4xx_HAL_Driver/Src/stm32f4xx_hal_i2s_ex.c ****   hi2s->TxXferCount--;
 1927              		.loc 1 956 7 view .LVU607
 1928 0008 0268     		ldr	r2, [r0]
 956:Drivers/STM32F4xx_HAL_Driver/Src/stm32f4xx_hal_i2s_ex.c ****   hi2s->TxXferCount--;
 1929              		.loc 1 956 25 view .LVU608
 1930 000a 1B88     		ldrh	r3, [r3]
 956:Drivers/STM32F4xx_HAL_Driver/Src/stm32f4xx_hal_i2s_ex.c ****   hi2s->TxXferCount--;
 1931              		.loc 1 956 22 view .LVU609
 1932 000c D360     		str	r3, [r2, #12]
 957:Drivers/STM32F4xx_HAL_Driver/Src/stm32f4xx_hal_i2s_ex.c **** 
 1933              		.loc 1 957 3 is_stmt 1 view .LVU610
 957:Drivers/STM32F4xx_HAL_Driver/Src/stm32f4xx_hal_i2s_ex.c **** 
 1934              		.loc 1 957 7 is_stmt 0 view .LVU611
 1935 000e 438D     		ldrh	r3, [r0, #42]
 1936 0010 9BB2     		uxth	r3, r3
 957:Drivers/STM32F4xx_HAL_Driver/Src/stm32f4xx_hal_i2s_ex.c **** 
 1937              		.loc 1 957 20 view .LVU612
 1938 0012 013B     		subs	r3, r3, #1
 1939 0014 9BB2     		uxth	r3, r3
 1940 0016 4385     		strh	r3, [r0, #42]	@ movhi
 959:Drivers/STM32F4xx_HAL_Driver/Src/stm32f4xx_hal_i2s_ex.c ****   {
 1941              		.loc 1 959 3 is_stmt 1 view .LVU613
 959:Drivers/STM32F4xx_HAL_Driver/Src/stm32f4xx_hal_i2s_ex.c ****   {
 1942              		.loc 1 959 11 is_stmt 0 view .LVU614
 1943 0018 438D     		ldrh	r3, [r0, #42]
 1944 001a 9BB2     		uxth	r3, r3
 959:Drivers/STM32F4xx_HAL_Driver/Src/stm32f4xx_hal_i2s_ex.c ****   {
 1945              		.loc 1 959 6 view .LVU615
 1946 001c 3BB9     		cbnz	r3, .L181
 962:Drivers/STM32F4xx_HAL_Driver/Src/stm32f4xx_hal_i2s_ex.c **** 
 1947              		.loc 1 962 5 is_stmt 1 view .LVU616
 1948 001e 0268     		ldr	r2, [r0]
 1949 0020 5368     		ldr	r3, [r2, #4]
ARM GAS  /var/folders/sd/sw6_rvdd1xd6sxxq8gkv_lph0000gn/T//cc7sexlg.s 			page 65


 1950 0022 23F0A003 		bic	r3, r3, #160
 1951 0026 5360     		str	r3, [r2, #4]
 964:Drivers/STM32F4xx_HAL_Driver/Src/stm32f4xx_hal_i2s_ex.c ****     {
 1952              		.loc 1 964 5 view .LVU617
 964:Drivers/STM32F4xx_HAL_Driver/Src/stm32f4xx_hal_i2s_ex.c ****     {
 1953              		.loc 1 964 13 is_stmt 0 view .LVU618
 1954 0028 438E     		ldrh	r3, [r0, #50]
 1955 002a 9BB2     		uxth	r3, r3
 964:Drivers/STM32F4xx_HAL_Driver/Src/stm32f4xx_hal_i2s_ex.c ****     {
 1956              		.loc 1 964 8 view .LVU619
 1957 002c 03B1     		cbz	r3, .L184
 1958              	.LVL109:
 1959              	.L181:
 975:Drivers/STM32F4xx_HAL_Driver/Src/stm32f4xx_hal_i2s_ex.c **** 
 1960              		.loc 1 975 1 view .LVU620
 1961 002e 08BD     		pop	{r3, pc}
 1962              	.LVL110:
 1963              	.L184:
 966:Drivers/STM32F4xx_HAL_Driver/Src/stm32f4xx_hal_i2s_ex.c ****       /* Call user TxRx complete callback */
 1964              		.loc 1 966 7 is_stmt 1 view .LVU621
 966:Drivers/STM32F4xx_HAL_Driver/Src/stm32f4xx_hal_i2s_ex.c ****       /* Call user TxRx complete callback */
 1965              		.loc 1 966 19 is_stmt 0 view .LVU622
 1966 0030 0123     		movs	r3, #1
 1967 0032 80F84130 		strb	r3, [r0, #65]
 971:Drivers/STM32F4xx_HAL_Driver/Src/stm32f4xx_hal_i2s_ex.c **** #endif /* USE_HAL_I2S_REGISTER_CALLBACKS */
 1968              		.loc 1 971 7 is_stmt 1 view .LVU623
 1969 0036 FFF7FEFF 		bl	HAL_I2SEx_TxRxCpltCallback
 1970              	.LVL111:
 975:Drivers/STM32F4xx_HAL_Driver/Src/stm32f4xx_hal_i2s_ex.c **** 
 1971              		.loc 1 975 1 is_stmt 0 view .LVU624
 1972 003a F8E7     		b	.L181
 1973              		.cfi_endproc
 1974              	.LFE139:
 1976              		.section	.text.I2SEx_RxISR_I2SExt,"ax",%progbits
 1977              		.align	1
 1978              		.syntax unified
 1979              		.thumb
 1980              		.thumb_func
 1981              		.fpu fpv4-sp-d16
 1983              	I2SEx_RxISR_I2SExt:
 1984              	.LVL112:
 1985              	.LFB142:
1041:Drivers/STM32F4xx_HAL_Driver/Src/stm32f4xx_hal_i2s_ex.c ****   /* Read Data from DR register */
 1986              		.loc 1 1041 1 is_stmt 1 view -0
 1987              		.cfi_startproc
 1988              		@ args = 0, pretend = 0, frame = 0
 1989              		@ frame_needed = 0, uses_anonymous_args = 0
1041:Drivers/STM32F4xx_HAL_Driver/Src/stm32f4xx_hal_i2s_ex.c ****   /* Read Data from DR register */
 1990              		.loc 1 1041 1 is_stmt 0 view .LVU626
 1991 0000 08B5     		push	{r3, lr}
 1992              	.LCFI13:
 1993              		.cfi_def_cfa_offset 8
 1994              		.cfi_offset 3, -8
 1995              		.cfi_offset 14, -4
1043:Drivers/STM32F4xx_HAL_Driver/Src/stm32f4xx_hal_i2s_ex.c ****   hi2s->RxXferCount--;
 1996              		.loc 1 1043 3 is_stmt 1 view .LVU627
1043:Drivers/STM32F4xx_HAL_Driver/Src/stm32f4xx_hal_i2s_ex.c ****   hi2s->RxXferCount--;
ARM GAS  /var/folders/sd/sw6_rvdd1xd6sxxq8gkv_lph0000gn/T//cc7sexlg.s 			page 66


 1997              		.loc 1 1043 27 is_stmt 0 view .LVU628
 1998 0002 0268     		ldr	r2, [r0]
 1999 0004 154B     		ldr	r3, .L195
 2000 0006 9A42     		cmp	r2, r3
 2001 0008 1CD0     		beq	.L192
 2002 000a 4FF04023 		mov	r3, #1073758208
 2003              	.L186:
1043:Drivers/STM32F4xx_HAL_Driver/Src/stm32f4xx_hal_i2s_ex.c ****   hi2s->RxXferCount--;
 2004              		.loc 1 1043 50 discriminator 4 view .LVU629
 2005 000e DA68     		ldr	r2, [r3, #12]
1043:Drivers/STM32F4xx_HAL_Driver/Src/stm32f4xx_hal_i2s_ex.c ****   hi2s->RxXferCount--;
 2006              		.loc 1 1043 9 discriminator 4 view .LVU630
 2007 0010 C36A     		ldr	r3, [r0, #44]
1043:Drivers/STM32F4xx_HAL_Driver/Src/stm32f4xx_hal_i2s_ex.c ****   hi2s->RxXferCount--;
 2008              		.loc 1 1043 21 discriminator 4 view .LVU631
 2009 0012 991C     		adds	r1, r3, #2
 2010 0014 C162     		str	r1, [r0, #44]
1043:Drivers/STM32F4xx_HAL_Driver/Src/stm32f4xx_hal_i2s_ex.c ****   hi2s->RxXferCount--;
 2011              		.loc 1 1043 25 discriminator 4 view .LVU632
 2012 0016 1A80     		strh	r2, [r3]	@ movhi
1044:Drivers/STM32F4xx_HAL_Driver/Src/stm32f4xx_hal_i2s_ex.c **** 
 2013              		.loc 1 1044 3 is_stmt 1 discriminator 4 view .LVU633
1044:Drivers/STM32F4xx_HAL_Driver/Src/stm32f4xx_hal_i2s_ex.c **** 
 2014              		.loc 1 1044 7 is_stmt 0 discriminator 4 view .LVU634
 2015 0018 438E     		ldrh	r3, [r0, #50]
 2016 001a 9BB2     		uxth	r3, r3
1044:Drivers/STM32F4xx_HAL_Driver/Src/stm32f4xx_hal_i2s_ex.c **** 
 2017              		.loc 1 1044 20 discriminator 4 view .LVU635
 2018 001c 013B     		subs	r3, r3, #1
 2019 001e 9BB2     		uxth	r3, r3
 2020 0020 4386     		strh	r3, [r0, #50]	@ movhi
1046:Drivers/STM32F4xx_HAL_Driver/Src/stm32f4xx_hal_i2s_ex.c ****   {
 2021              		.loc 1 1046 3 is_stmt 1 discriminator 4 view .LVU636
1046:Drivers/STM32F4xx_HAL_Driver/Src/stm32f4xx_hal_i2s_ex.c ****   {
 2022              		.loc 1 1046 11 is_stmt 0 discriminator 4 view .LVU637
 2023 0022 438E     		ldrh	r3, [r0, #50]
 2024 0024 9BB2     		uxth	r3, r3
1046:Drivers/STM32F4xx_HAL_Driver/Src/stm32f4xx_hal_i2s_ex.c ****   {
 2025              		.loc 1 1046 6 discriminator 4 view .LVU638
 2026 0026 63B9     		cbnz	r3, .L185
1049:Drivers/STM32F4xx_HAL_Driver/Src/stm32f4xx_hal_i2s_ex.c **** 
 2027              		.loc 1 1049 5 is_stmt 1 view .LVU639
 2028 0028 0268     		ldr	r2, [r0]
 2029 002a 0C4B     		ldr	r3, .L195
 2030 002c 9A42     		cmp	r2, r3
 2031 002e 0CD0     		beq	.L193
 2032 0030 4FF04022 		mov	r2, #1073758208
 2033              	.L188:
1049:Drivers/STM32F4xx_HAL_Driver/Src/stm32f4xx_hal_i2s_ex.c **** 
 2034              		.loc 1 1049 5 is_stmt 0 discriminator 4 view .LVU640
 2035 0034 5368     		ldr	r3, [r2, #4]
 2036 0036 23F06003 		bic	r3, r3, #96
 2037 003a 5360     		str	r3, [r2, #4]
1051:Drivers/STM32F4xx_HAL_Driver/Src/stm32f4xx_hal_i2s_ex.c ****     {
 2038              		.loc 1 1051 5 is_stmt 1 discriminator 4 view .LVU641
1051:Drivers/STM32F4xx_HAL_Driver/Src/stm32f4xx_hal_i2s_ex.c ****     {
 2039              		.loc 1 1051 13 is_stmt 0 discriminator 4 view .LVU642
ARM GAS  /var/folders/sd/sw6_rvdd1xd6sxxq8gkv_lph0000gn/T//cc7sexlg.s 			page 67


 2040 003c 438D     		ldrh	r3, [r0, #42]
 2041 003e 9BB2     		uxth	r3, r3
1051:Drivers/STM32F4xx_HAL_Driver/Src/stm32f4xx_hal_i2s_ex.c ****     {
 2042              		.loc 1 1051 8 discriminator 4 view .LVU643
 2043 0040 2BB1     		cbz	r3, .L194
 2044              	.LVL113:
 2045              	.L185:
1062:Drivers/STM32F4xx_HAL_Driver/Src/stm32f4xx_hal_i2s_ex.c **** 
 2046              		.loc 1 1062 1 view .LVU644
 2047 0042 08BD     		pop	{r3, pc}
 2048              	.LVL114:
 2049              	.L192:
1043:Drivers/STM32F4xx_HAL_Driver/Src/stm32f4xx_hal_i2s_ex.c ****   hi2s->RxXferCount--;
 2050              		.loc 1 1043 27 view .LVU645
 2051 0044 A3F58063 		sub	r3, r3, #1024
 2052 0048 E1E7     		b	.L186
 2053              	.L193:
1049:Drivers/STM32F4xx_HAL_Driver/Src/stm32f4xx_hal_i2s_ex.c **** 
 2054              		.loc 1 1049 5 view .LVU646
 2055 004a 054A     		ldr	r2, .L195+4
 2056 004c F2E7     		b	.L188
 2057              	.L194:
1053:Drivers/STM32F4xx_HAL_Driver/Src/stm32f4xx_hal_i2s_ex.c ****       /* Call user TxRx complete callback */
 2058              		.loc 1 1053 7 is_stmt 1 view .LVU647
1053:Drivers/STM32F4xx_HAL_Driver/Src/stm32f4xx_hal_i2s_ex.c ****       /* Call user TxRx complete callback */
 2059              		.loc 1 1053 19 is_stmt 0 view .LVU648
 2060 004e 0123     		movs	r3, #1
 2061 0050 80F84130 		strb	r3, [r0, #65]
1058:Drivers/STM32F4xx_HAL_Driver/Src/stm32f4xx_hal_i2s_ex.c **** #endif /* USE_HAL_I2S_REGISTER_CALLBACKS */
 2062              		.loc 1 1058 7 is_stmt 1 view .LVU649
 2063 0054 FFF7FEFF 		bl	HAL_I2SEx_TxRxCpltCallback
 2064              	.LVL115:
1062:Drivers/STM32F4xx_HAL_Driver/Src/stm32f4xx_hal_i2s_ex.c **** 
 2065              		.loc 1 1062 1 is_stmt 0 view .LVU650
 2066 0058 F3E7     		b	.L185
 2067              	.L196:
 2068 005a 00BF     		.align	2
 2069              	.L195:
 2070 005c 00380040 		.word	1073756160
 2071 0060 00340040 		.word	1073755136
 2072              		.cfi_endproc
 2073              	.LFE142:
 2075              		.section	.text.I2SEx_TxISR_I2SExt,"ax",%progbits
 2076              		.align	1
 2077              		.syntax unified
 2078              		.thumb
 2079              		.thumb_func
 2080              		.fpu fpv4-sp-d16
 2082              	I2SEx_TxISR_I2SExt:
 2083              	.LVL116:
 2084              	.LFB140:
 983:Drivers/STM32F4xx_HAL_Driver/Src/stm32f4xx_hal_i2s_ex.c ****   /* Write Data on DR register */
 2085              		.loc 1 983 1 is_stmt 1 view -0
 2086              		.cfi_startproc
 2087              		@ args = 0, pretend = 0, frame = 0
 2088              		@ frame_needed = 0, uses_anonymous_args = 0
 983:Drivers/STM32F4xx_HAL_Driver/Src/stm32f4xx_hal_i2s_ex.c ****   /* Write Data on DR register */
ARM GAS  /var/folders/sd/sw6_rvdd1xd6sxxq8gkv_lph0000gn/T//cc7sexlg.s 			page 68


 2089              		.loc 1 983 1 is_stmt 0 view .LVU652
 2090 0000 08B5     		push	{r3, lr}
 2091              	.LCFI14:
 2092              		.cfi_def_cfa_offset 8
 2093              		.cfi_offset 3, -8
 2094              		.cfi_offset 14, -4
 985:Drivers/STM32F4xx_HAL_Driver/Src/stm32f4xx_hal_i2s_ex.c ****   hi2s->TxXferCount--;
 2095              		.loc 1 985 3 is_stmt 1 view .LVU653
 985:Drivers/STM32F4xx_HAL_Driver/Src/stm32f4xx_hal_i2s_ex.c ****   hi2s->TxXferCount--;
 2096              		.loc 1 985 39 is_stmt 0 view .LVU654
 2097 0002 436A     		ldr	r3, [r0, #36]
 985:Drivers/STM32F4xx_HAL_Driver/Src/stm32f4xx_hal_i2s_ex.c ****   hi2s->TxXferCount--;
 2098              		.loc 1 985 51 view .LVU655
 2099 0004 9A1C     		adds	r2, r3, #2
 2100 0006 4262     		str	r2, [r0, #36]
 985:Drivers/STM32F4xx_HAL_Driver/Src/stm32f4xx_hal_i2s_ex.c ****   hi2s->TxXferCount--;
 2101              		.loc 1 985 34 view .LVU656
 2102 0008 1A88     		ldrh	r2, [r3]
 985:Drivers/STM32F4xx_HAL_Driver/Src/stm32f4xx_hal_i2s_ex.c ****   hi2s->TxXferCount--;
 2103              		.loc 1 985 3 view .LVU657
 2104 000a 0168     		ldr	r1, [r0]
 2105 000c 134B     		ldr	r3, .L207
 2106 000e 9942     		cmp	r1, r3
 2107 0010 18D0     		beq	.L204
 2108 0012 4FF04023 		mov	r3, #1073758208
 2109              	.L198:
 985:Drivers/STM32F4xx_HAL_Driver/Src/stm32f4xx_hal_i2s_ex.c ****   hi2s->TxXferCount--;
 2110              		.loc 1 985 31 discriminator 4 view .LVU658
 2111 0016 DA60     		str	r2, [r3, #12]
 986:Drivers/STM32F4xx_HAL_Driver/Src/stm32f4xx_hal_i2s_ex.c **** 
 2112              		.loc 1 986 3 is_stmt 1 discriminator 4 view .LVU659
 986:Drivers/STM32F4xx_HAL_Driver/Src/stm32f4xx_hal_i2s_ex.c **** 
 2113              		.loc 1 986 7 is_stmt 0 discriminator 4 view .LVU660
 2114 0018 438D     		ldrh	r3, [r0, #42]
 2115 001a 9BB2     		uxth	r3, r3
 986:Drivers/STM32F4xx_HAL_Driver/Src/stm32f4xx_hal_i2s_ex.c **** 
 2116              		.loc 1 986 20 discriminator 4 view .LVU661
 2117 001c 013B     		subs	r3, r3, #1
 2118 001e 9BB2     		uxth	r3, r3
 2119 0020 4385     		strh	r3, [r0, #42]	@ movhi
 988:Drivers/STM32F4xx_HAL_Driver/Src/stm32f4xx_hal_i2s_ex.c ****   {
 2120              		.loc 1 988 3 is_stmt 1 discriminator 4 view .LVU662
 988:Drivers/STM32F4xx_HAL_Driver/Src/stm32f4xx_hal_i2s_ex.c ****   {
 2121              		.loc 1 988 11 is_stmt 0 discriminator 4 view .LVU663
 2122 0022 438D     		ldrh	r3, [r0, #42]
 2123 0024 9BB2     		uxth	r3, r3
 988:Drivers/STM32F4xx_HAL_Driver/Src/stm32f4xx_hal_i2s_ex.c ****   {
 2124              		.loc 1 988 6 discriminator 4 view .LVU664
 2125 0026 63B9     		cbnz	r3, .L197
 991:Drivers/STM32F4xx_HAL_Driver/Src/stm32f4xx_hal_i2s_ex.c **** 
 2126              		.loc 1 991 5 is_stmt 1 view .LVU665
 2127 0028 0268     		ldr	r2, [r0]
 2128 002a 0C4B     		ldr	r3, .L207
 2129 002c 9A42     		cmp	r2, r3
 2130 002e 0CD0     		beq	.L205
 2131 0030 4FF04022 		mov	r2, #1073758208
 2132              	.L200:
ARM GAS  /var/folders/sd/sw6_rvdd1xd6sxxq8gkv_lph0000gn/T//cc7sexlg.s 			page 69


 991:Drivers/STM32F4xx_HAL_Driver/Src/stm32f4xx_hal_i2s_ex.c **** 
 2133              		.loc 1 991 5 is_stmt 0 discriminator 4 view .LVU666
 2134 0034 5368     		ldr	r3, [r2, #4]
 2135 0036 23F0A003 		bic	r3, r3, #160
 2136 003a 5360     		str	r3, [r2, #4]
 993:Drivers/STM32F4xx_HAL_Driver/Src/stm32f4xx_hal_i2s_ex.c ****     {
 2137              		.loc 1 993 5 is_stmt 1 discriminator 4 view .LVU667
 993:Drivers/STM32F4xx_HAL_Driver/Src/stm32f4xx_hal_i2s_ex.c ****     {
 2138              		.loc 1 993 13 is_stmt 0 discriminator 4 view .LVU668
 2139 003c 438E     		ldrh	r3, [r0, #50]
 2140 003e 9BB2     		uxth	r3, r3
 993:Drivers/STM32F4xx_HAL_Driver/Src/stm32f4xx_hal_i2s_ex.c ****     {
 2141              		.loc 1 993 8 discriminator 4 view .LVU669
 2142 0040 2BB1     		cbz	r3, .L206
 2143              	.LVL117:
 2144              	.L197:
1004:Drivers/STM32F4xx_HAL_Driver/Src/stm32f4xx_hal_i2s_ex.c **** 
 2145              		.loc 1 1004 1 view .LVU670
 2146 0042 08BD     		pop	{r3, pc}
 2147              	.LVL118:
 2148              	.L204:
 985:Drivers/STM32F4xx_HAL_Driver/Src/stm32f4xx_hal_i2s_ex.c ****   hi2s->TxXferCount--;
 2149              		.loc 1 985 3 view .LVU671
 2150 0044 A3F58063 		sub	r3, r3, #1024
 2151 0048 E5E7     		b	.L198
 2152              	.L205:
 991:Drivers/STM32F4xx_HAL_Driver/Src/stm32f4xx_hal_i2s_ex.c **** 
 2153              		.loc 1 991 5 view .LVU672
 2154 004a 054A     		ldr	r2, .L207+4
 2155 004c F2E7     		b	.L200
 2156              	.L206:
 995:Drivers/STM32F4xx_HAL_Driver/Src/stm32f4xx_hal_i2s_ex.c ****       /* Call user TxRx complete callback */
 2157              		.loc 1 995 7 is_stmt 1 view .LVU673
 995:Drivers/STM32F4xx_HAL_Driver/Src/stm32f4xx_hal_i2s_ex.c ****       /* Call user TxRx complete callback */
 2158              		.loc 1 995 19 is_stmt 0 view .LVU674
 2159 004e 0123     		movs	r3, #1
 2160 0050 80F84130 		strb	r3, [r0, #65]
1000:Drivers/STM32F4xx_HAL_Driver/Src/stm32f4xx_hal_i2s_ex.c **** #endif /* USE_HAL_I2S_REGISTER_CALLBACKS */
 2161              		.loc 1 1000 7 is_stmt 1 view .LVU675
 2162 0054 FFF7FEFF 		bl	HAL_I2SEx_TxRxCpltCallback
 2163              	.LVL119:
1004:Drivers/STM32F4xx_HAL_Driver/Src/stm32f4xx_hal_i2s_ex.c **** 
 2164              		.loc 1 1004 1 is_stmt 0 view .LVU676
 2165 0058 F3E7     		b	.L197
 2166              	.L208:
 2167 005a 00BF     		.align	2
 2168              	.L207:
 2169 005c 00380040 		.word	1073756160
 2170 0060 00340040 		.word	1073755136
 2171              		.cfi_endproc
 2172              	.LFE140:
 2174              		.section	.text.I2SEx_RxISR_I2S,"ax",%progbits
 2175              		.align	1
 2176              		.syntax unified
 2177              		.thumb
 2178              		.thumb_func
 2179              		.fpu fpv4-sp-d16
ARM GAS  /var/folders/sd/sw6_rvdd1xd6sxxq8gkv_lph0000gn/T//cc7sexlg.s 			page 70


 2181              	I2SEx_RxISR_I2S:
 2182              	.LVL120:
 2183              	.LFB141:
1012:Drivers/STM32F4xx_HAL_Driver/Src/stm32f4xx_hal_i2s_ex.c ****   /* Read Data from DR register */
 2184              		.loc 1 1012 1 is_stmt 1 view -0
 2185              		.cfi_startproc
 2186              		@ args = 0, pretend = 0, frame = 0
 2187              		@ frame_needed = 0, uses_anonymous_args = 0
1012:Drivers/STM32F4xx_HAL_Driver/Src/stm32f4xx_hal_i2s_ex.c ****   /* Read Data from DR register */
 2188              		.loc 1 1012 1 is_stmt 0 view .LVU678
 2189 0000 08B5     		push	{r3, lr}
 2190              	.LCFI15:
 2191              		.cfi_def_cfa_offset 8
 2192              		.cfi_offset 3, -8
 2193              		.cfi_offset 14, -4
1014:Drivers/STM32F4xx_HAL_Driver/Src/stm32f4xx_hal_i2s_ex.c ****   hi2s->RxXferCount--;
 2194              		.loc 1 1014 3 is_stmt 1 view .LVU679
1014:Drivers/STM32F4xx_HAL_Driver/Src/stm32f4xx_hal_i2s_ex.c ****   hi2s->RxXferCount--;
 2195              		.loc 1 1014 31 is_stmt 0 view .LVU680
 2196 0002 0368     		ldr	r3, [r0]
1014:Drivers/STM32F4xx_HAL_Driver/Src/stm32f4xx_hal_i2s_ex.c ****   hi2s->RxXferCount--;
 2197              		.loc 1 1014 41 view .LVU681
 2198 0004 DA68     		ldr	r2, [r3, #12]
1014:Drivers/STM32F4xx_HAL_Driver/Src/stm32f4xx_hal_i2s_ex.c ****   hi2s->RxXferCount--;
 2199              		.loc 1 1014 9 view .LVU682
 2200 0006 C36A     		ldr	r3, [r0, #44]
1014:Drivers/STM32F4xx_HAL_Driver/Src/stm32f4xx_hal_i2s_ex.c ****   hi2s->RxXferCount--;
 2201              		.loc 1 1014 21 view .LVU683
 2202 0008 991C     		adds	r1, r3, #2
 2203 000a C162     		str	r1, [r0, #44]
1014:Drivers/STM32F4xx_HAL_Driver/Src/stm32f4xx_hal_i2s_ex.c ****   hi2s->RxXferCount--;
 2204              		.loc 1 1014 25 view .LVU684
 2205 000c 1A80     		strh	r2, [r3]	@ movhi
1015:Drivers/STM32F4xx_HAL_Driver/Src/stm32f4xx_hal_i2s_ex.c **** 
 2206              		.loc 1 1015 3 is_stmt 1 view .LVU685
1015:Drivers/STM32F4xx_HAL_Driver/Src/stm32f4xx_hal_i2s_ex.c **** 
 2207              		.loc 1 1015 7 is_stmt 0 view .LVU686
 2208 000e 438E     		ldrh	r3, [r0, #50]
 2209 0010 9BB2     		uxth	r3, r3
1015:Drivers/STM32F4xx_HAL_Driver/Src/stm32f4xx_hal_i2s_ex.c **** 
 2210              		.loc 1 1015 20 view .LVU687
 2211 0012 013B     		subs	r3, r3, #1
 2212 0014 9BB2     		uxth	r3, r3
 2213 0016 4386     		strh	r3, [r0, #50]	@ movhi
1017:Drivers/STM32F4xx_HAL_Driver/Src/stm32f4xx_hal_i2s_ex.c ****   {
 2214              		.loc 1 1017 3 is_stmt 1 view .LVU688
1017:Drivers/STM32F4xx_HAL_Driver/Src/stm32f4xx_hal_i2s_ex.c ****   {
 2215              		.loc 1 1017 11 is_stmt 0 view .LVU689
 2216 0018 438E     		ldrh	r3, [r0, #50]
 2217 001a 9BB2     		uxth	r3, r3
1017:Drivers/STM32F4xx_HAL_Driver/Src/stm32f4xx_hal_i2s_ex.c ****   {
 2218              		.loc 1 1017 6 view .LVU690
 2219 001c 3BB9     		cbnz	r3, .L209
1020:Drivers/STM32F4xx_HAL_Driver/Src/stm32f4xx_hal_i2s_ex.c **** 
 2220              		.loc 1 1020 5 is_stmt 1 view .LVU691
 2221 001e 0268     		ldr	r2, [r0]
 2222 0020 5368     		ldr	r3, [r2, #4]
ARM GAS  /var/folders/sd/sw6_rvdd1xd6sxxq8gkv_lph0000gn/T//cc7sexlg.s 			page 71


 2223 0022 23F06003 		bic	r3, r3, #96
 2224 0026 5360     		str	r3, [r2, #4]
1022:Drivers/STM32F4xx_HAL_Driver/Src/stm32f4xx_hal_i2s_ex.c ****     {
 2225              		.loc 1 1022 5 view .LVU692
1022:Drivers/STM32F4xx_HAL_Driver/Src/stm32f4xx_hal_i2s_ex.c ****     {
 2226              		.loc 1 1022 13 is_stmt 0 view .LVU693
 2227 0028 438D     		ldrh	r3, [r0, #42]
 2228 002a 9BB2     		uxth	r3, r3
1022:Drivers/STM32F4xx_HAL_Driver/Src/stm32f4xx_hal_i2s_ex.c ****     {
 2229              		.loc 1 1022 8 view .LVU694
 2230 002c 03B1     		cbz	r3, .L212
 2231              	.LVL121:
 2232              	.L209:
1033:Drivers/STM32F4xx_HAL_Driver/Src/stm32f4xx_hal_i2s_ex.c **** 
 2233              		.loc 1 1033 1 view .LVU695
 2234 002e 08BD     		pop	{r3, pc}
 2235              	.LVL122:
 2236              	.L212:
1024:Drivers/STM32F4xx_HAL_Driver/Src/stm32f4xx_hal_i2s_ex.c ****       /* Call user TxRx complete callback */
 2237              		.loc 1 1024 7 is_stmt 1 view .LVU696
1024:Drivers/STM32F4xx_HAL_Driver/Src/stm32f4xx_hal_i2s_ex.c ****       /* Call user TxRx complete callback */
 2238              		.loc 1 1024 19 is_stmt 0 view .LVU697
 2239 0030 0123     		movs	r3, #1
 2240 0032 80F84130 		strb	r3, [r0, #65]
1029:Drivers/STM32F4xx_HAL_Driver/Src/stm32f4xx_hal_i2s_ex.c **** #endif /* USE_HAL_I2S_REGISTER_CALLBACKS */
 2241              		.loc 1 1029 7 is_stmt 1 view .LVU698
 2242 0036 FFF7FEFF 		bl	HAL_I2SEx_TxRxCpltCallback
 2243              	.LVL123:
1033:Drivers/STM32F4xx_HAL_Driver/Src/stm32f4xx_hal_i2s_ex.c **** 
 2244              		.loc 1 1033 1 is_stmt 0 view .LVU699
 2245 003a F8E7     		b	.L209
 2246              		.cfi_endproc
 2247              	.LFE141:
 2249              		.section	.text.HAL_I2SEx_FullDuplex_IRQHandler,"ax",%progbits
 2250              		.align	1
 2251              		.global	HAL_I2SEx_FullDuplex_IRQHandler
 2252              		.syntax unified
 2253              		.thumb
 2254              		.thumb_func
 2255              		.fpu fpv4-sp-d16
 2257              	HAL_I2SEx_FullDuplex_IRQHandler:
 2258              	.LVL124:
 2259              	.LFB133:
 680:Drivers/STM32F4xx_HAL_Driver/Src/stm32f4xx_hal_i2s_ex.c ****   __IO uint32_t i2ssr     = hi2s->Instance->SR;
 2260              		.loc 1 680 1 is_stmt 1 view -0
 2261              		.cfi_startproc
 2262              		@ args = 0, pretend = 0, frame = 24
 2263              		@ frame_needed = 0, uses_anonymous_args = 0
 680:Drivers/STM32F4xx_HAL_Driver/Src/stm32f4xx_hal_i2s_ex.c ****   __IO uint32_t i2ssr     = hi2s->Instance->SR;
 2264              		.loc 1 680 1 is_stmt 0 view .LVU701
 2265 0000 10B5     		push	{r4, lr}
 2266              	.LCFI16:
 2267              		.cfi_def_cfa_offset 8
 2268              		.cfi_offset 4, -8
 2269              		.cfi_offset 14, -4
 2270 0002 86B0     		sub	sp, sp, #24
 2271              	.LCFI17:
ARM GAS  /var/folders/sd/sw6_rvdd1xd6sxxq8gkv_lph0000gn/T//cc7sexlg.s 			page 72


 2272              		.cfi_def_cfa_offset 32
 2273 0004 0446     		mov	r4, r0
 681:Drivers/STM32F4xx_HAL_Driver/Src/stm32f4xx_hal_i2s_ex.c ****   __IO uint32_t i2sextsr  = I2SxEXT(hi2s->Instance)->SR;
 2274              		.loc 1 681 3 is_stmt 1 view .LVU702
 681:Drivers/STM32F4xx_HAL_Driver/Src/stm32f4xx_hal_i2s_ex.c ****   __IO uint32_t i2sextsr  = I2SxEXT(hi2s->Instance)->SR;
 2275              		.loc 1 681 33 is_stmt 0 view .LVU703
 2276 0006 0368     		ldr	r3, [r0]
 681:Drivers/STM32F4xx_HAL_Driver/Src/stm32f4xx_hal_i2s_ex.c ****   __IO uint32_t i2sextsr  = I2SxEXT(hi2s->Instance)->SR;
 2277              		.loc 1 681 43 view .LVU704
 2278 0008 9A68     		ldr	r2, [r3, #8]
 681:Drivers/STM32F4xx_HAL_Driver/Src/stm32f4xx_hal_i2s_ex.c ****   __IO uint32_t i2sextsr  = I2SxEXT(hi2s->Instance)->SR;
 2279              		.loc 1 681 17 view .LVU705
 2280 000a 0592     		str	r2, [sp, #20]
 682:Drivers/STM32F4xx_HAL_Driver/Src/stm32f4xx_hal_i2s_ex.c ****   __IO uint32_t i2scr2    = hi2s->Instance->CR2;
 2281              		.loc 1 682 3 is_stmt 1 view .LVU706
 682:Drivers/STM32F4xx_HAL_Driver/Src/stm32f4xx_hal_i2s_ex.c ****   __IO uint32_t i2scr2    = hi2s->Instance->CR2;
 2282              		.loc 1 682 29 is_stmt 0 view .LVU707
 2283 000c 704A     		ldr	r2, .L243
 2284 000e 9342     		cmp	r3, r2
 2285 0010 6FD0     		beq	.L234
 2286 0012 4FF04022 		mov	r2, #1073758208
 2287              	.L214:
 682:Drivers/STM32F4xx_HAL_Driver/Src/stm32f4xx_hal_i2s_ex.c ****   __IO uint32_t i2scr2    = hi2s->Instance->CR2;
 2288              		.loc 1 682 52 discriminator 4 view .LVU708
 2289 0016 9168     		ldr	r1, [r2, #8]
 682:Drivers/STM32F4xx_HAL_Driver/Src/stm32f4xx_hal_i2s_ex.c ****   __IO uint32_t i2scr2    = hi2s->Instance->CR2;
 2290              		.loc 1 682 17 discriminator 4 view .LVU709
 2291 0018 0491     		str	r1, [sp, #16]
 683:Drivers/STM32F4xx_HAL_Driver/Src/stm32f4xx_hal_i2s_ex.c ****   __IO uint32_t i2sextcr2 = I2SxEXT(hi2s->Instance)->CR2;
 2292              		.loc 1 683 3 is_stmt 1 discriminator 4 view .LVU710
 683:Drivers/STM32F4xx_HAL_Driver/Src/stm32f4xx_hal_i2s_ex.c ****   __IO uint32_t i2sextcr2 = I2SxEXT(hi2s->Instance)->CR2;
 2293              		.loc 1 683 43 is_stmt 0 discriminator 4 view .LVU711
 2294 001a 5B68     		ldr	r3, [r3, #4]
 683:Drivers/STM32F4xx_HAL_Driver/Src/stm32f4xx_hal_i2s_ex.c ****   __IO uint32_t i2sextcr2 = I2SxEXT(hi2s->Instance)->CR2;
 2295              		.loc 1 683 17 discriminator 4 view .LVU712
 2296 001c 0393     		str	r3, [sp, #12]
 684:Drivers/STM32F4xx_HAL_Driver/Src/stm32f4xx_hal_i2s_ex.c **** 
 2297              		.loc 1 684 3 is_stmt 1 discriminator 4 view .LVU713
 684:Drivers/STM32F4xx_HAL_Driver/Src/stm32f4xx_hal_i2s_ex.c **** 
 2298              		.loc 1 684 52 is_stmt 0 discriminator 4 view .LVU714
 2299 001e 5368     		ldr	r3, [r2, #4]
 684:Drivers/STM32F4xx_HAL_Driver/Src/stm32f4xx_hal_i2s_ex.c **** 
 2300              		.loc 1 684 17 discriminator 4 view .LVU715
 2301 0020 0293     		str	r3, [sp, #8]
 687:Drivers/STM32F4xx_HAL_Driver/Src/stm32f4xx_hal_i2s_ex.c ****   {
 2302              		.loc 1 687 3 is_stmt 1 discriminator 4 view .LVU716
 687:Drivers/STM32F4xx_HAL_Driver/Src/stm32f4xx_hal_i2s_ex.c ****   {
 2303              		.loc 1 687 18 is_stmt 0 discriminator 4 view .LVU717
 2304 0022 6368     		ldr	r3, [r4, #4]
 687:Drivers/STM32F4xx_HAL_Driver/Src/stm32f4xx_hal_i2s_ex.c ****   {
 2305              		.loc 1 687 6 discriminator 4 view .LVU718
 2306 0024 B3F5007F 		cmp	r3, #512
 2307 0028 01D0     		beq	.L215
 687:Drivers/STM32F4xx_HAL_Driver/Src/stm32f4xx_hal_i2s_ex.c ****   {
 2308              		.loc 1 687 47 discriminator 1 view .LVU719
 2309 002a 002B     		cmp	r3, #0
 2310 002c 70D1     		bne	.L216
ARM GAS  /var/folders/sd/sw6_rvdd1xd6sxxq8gkv_lph0000gn/T//cc7sexlg.s 			page 73


 2311              	.L215:
 690:Drivers/STM32F4xx_HAL_Driver/Src/stm32f4xx_hal_i2s_ex.c ****     {
 2312              		.loc 1 690 5 is_stmt 1 view .LVU720
 690:Drivers/STM32F4xx_HAL_Driver/Src/stm32f4xx_hal_i2s_ex.c ****     {
 2313              		.loc 1 690 17 is_stmt 0 view .LVU721
 2314 002e 059B     		ldr	r3, [sp, #20]
 690:Drivers/STM32F4xx_HAL_Driver/Src/stm32f4xx_hal_i2s_ex.c ****     {
 2315              		.loc 1 690 8 view .LVU722
 2316 0030 13F0020F 		tst	r3, #2
 2317 0034 03D0     		beq	.L217
 690:Drivers/STM32F4xx_HAL_Driver/Src/stm32f4xx_hal_i2s_ex.c ****     {
 2318              		.loc 1 690 62 discriminator 1 view .LVU723
 2319 0036 039B     		ldr	r3, [sp, #12]
 690:Drivers/STM32F4xx_HAL_Driver/Src/stm32f4xx_hal_i2s_ex.c ****     {
 2320              		.loc 1 690 50 discriminator 1 view .LVU724
 2321 0038 13F0800F 		tst	r3, #128
 2322 003c 5CD1     		bne	.L235
 2323              	.LVL125:
 2324              	.L217:
 698:Drivers/STM32F4xx_HAL_Driver/Src/stm32f4xx_hal_i2s_ex.c ****     {
 2325              		.loc 1 698 5 is_stmt 1 view .LVU725
 698:Drivers/STM32F4xx_HAL_Driver/Src/stm32f4xx_hal_i2s_ex.c ****     {
 2326              		.loc 1 698 20 is_stmt 0 view .LVU726
 2327 003e 049B     		ldr	r3, [sp, #16]
 698:Drivers/STM32F4xx_HAL_Driver/Src/stm32f4xx_hal_i2s_ex.c ****     {
 2328              		.loc 1 698 8 view .LVU727
 2329 0040 13F0010F 		tst	r3, #1
 2330 0044 03D0     		beq	.L218
 698:Drivers/STM32F4xx_HAL_Driver/Src/stm32f4xx_hal_i2s_ex.c ****     {
 2331              		.loc 1 698 70 discriminator 1 view .LVU728
 2332 0046 029B     		ldr	r3, [sp, #8]
 698:Drivers/STM32F4xx_HAL_Driver/Src/stm32f4xx_hal_i2s_ex.c ****     {
 2333              		.loc 1 698 55 discriminator 1 view .LVU729
 2334 0048 13F0400F 		tst	r3, #64
 2335 004c 58D1     		bne	.L236
 2336              	.L218:
 706:Drivers/STM32F4xx_HAL_Driver/Src/stm32f4xx_hal_i2s_ex.c ****     {
 2337              		.loc 1 706 5 is_stmt 1 view .LVU730
 706:Drivers/STM32F4xx_HAL_Driver/Src/stm32f4xx_hal_i2s_ex.c ****     {
 2338              		.loc 1 706 20 is_stmt 0 view .LVU731
 2339 004e 049B     		ldr	r3, [sp, #16]
 706:Drivers/STM32F4xx_HAL_Driver/Src/stm32f4xx_hal_i2s_ex.c ****     {
 2340              		.loc 1 706 8 view .LVU732
 2341 0050 13F0400F 		tst	r3, #64
 2342 0054 24D0     		beq	.L219
 706:Drivers/STM32F4xx_HAL_Driver/Src/stm32f4xx_hal_i2s_ex.c ****     {
 2343              		.loc 1 706 68 discriminator 1 view .LVU733
 2344 0056 029B     		ldr	r3, [sp, #8]
 706:Drivers/STM32F4xx_HAL_Driver/Src/stm32f4xx_hal_i2s_ex.c ****     {
 2345              		.loc 1 706 53 discriminator 1 view .LVU734
 2346 0058 13F0200F 		tst	r3, #32
 2347 005c 20D0     		beq	.L219
 709:Drivers/STM32F4xx_HAL_Driver/Src/stm32f4xx_hal_i2s_ex.c **** 
 2348              		.loc 1 709 7 is_stmt 1 view .LVU735
 2349 005e 2268     		ldr	r2, [r4]
 2350 0060 5B4B     		ldr	r3, .L243
 2351 0062 9A42     		cmp	r2, r3
ARM GAS  /var/folders/sd/sw6_rvdd1xd6sxxq8gkv_lph0000gn/T//cc7sexlg.s 			page 74


 2352 0064 50D0     		beq	.L237
 2353 0066 4FF04022 		mov	r2, #1073758208
 2354              	.L220:
 709:Drivers/STM32F4xx_HAL_Driver/Src/stm32f4xx_hal_i2s_ex.c **** 
 2355              		.loc 1 709 7 is_stmt 0 discriminator 4 view .LVU736
 2356 006a 5368     		ldr	r3, [r2, #4]
 2357 006c 23F06003 		bic	r3, r3, #96
 2358 0070 5360     		str	r3, [r2, #4]
 712:Drivers/STM32F4xx_HAL_Driver/Src/stm32f4xx_hal_i2s_ex.c **** 
 2359              		.loc 1 712 7 is_stmt 1 discriminator 4 view .LVU737
 2360 0072 2268     		ldr	r2, [r4]
 2361 0074 5368     		ldr	r3, [r2, #4]
 2362 0076 23F0A003 		bic	r3, r3, #160
 2363 007a 5360     		str	r3, [r2, #4]
 715:Drivers/STM32F4xx_HAL_Driver/Src/stm32f4xx_hal_i2s_ex.c **** 
 2364              		.loc 1 715 7 discriminator 4 view .LVU738
 2365              	.LBB10:
 715:Drivers/STM32F4xx_HAL_Driver/Src/stm32f4xx_hal_i2s_ex.c **** 
 2366              		.loc 1 715 7 discriminator 4 view .LVU739
 2367 007c 0023     		movs	r3, #0
 2368 007e 0093     		str	r3, [sp]
 715:Drivers/STM32F4xx_HAL_Driver/Src/stm32f4xx_hal_i2s_ex.c **** 
 2369              		.loc 1 715 7 discriminator 4 view .LVU740
 2370 0080 2368     		ldr	r3, [r4]
 2371 0082 DA68     		ldr	r2, [r3, #12]
 2372 0084 0092     		str	r2, [sp]
 715:Drivers/STM32F4xx_HAL_Driver/Src/stm32f4xx_hal_i2s_ex.c **** 
 2373              		.loc 1 715 7 discriminator 4 view .LVU741
 2374 0086 9B68     		ldr	r3, [r3, #8]
 2375 0088 0093     		str	r3, [sp]
 715:Drivers/STM32F4xx_HAL_Driver/Src/stm32f4xx_hal_i2s_ex.c **** 
 2376              		.loc 1 715 7 discriminator 4 view .LVU742
 2377 008a 009B     		ldr	r3, [sp]
 2378              	.LBE10:
 715:Drivers/STM32F4xx_HAL_Driver/Src/stm32f4xx_hal_i2s_ex.c **** 
 2379              		.loc 1 715 7 discriminator 4 view .LVU743
 718:Drivers/STM32F4xx_HAL_Driver/Src/stm32f4xx_hal_i2s_ex.c **** 
 2380              		.loc 1 718 7 discriminator 4 view .LVU744
 718:Drivers/STM32F4xx_HAL_Driver/Src/stm32f4xx_hal_i2s_ex.c **** 
 2381              		.loc 1 718 19 is_stmt 0 discriminator 4 view .LVU745
 2382 008c 0123     		movs	r3, #1
 2383 008e 84F84130 		strb	r3, [r4, #65]
 721:Drivers/STM32F4xx_HAL_Driver/Src/stm32f4xx_hal_i2s_ex.c ****       /* Call user error callback */
 2384              		.loc 1 721 7 is_stmt 1 discriminator 4 view .LVU746
 2385 0092 636C     		ldr	r3, [r4, #68]
 2386 0094 43F00203 		orr	r3, r3, #2
 2387 0098 6364     		str	r3, [r4, #68]
 726:Drivers/STM32F4xx_HAL_Driver/Src/stm32f4xx_hal_i2s_ex.c **** #endif /* USE_HAL_I2S_REGISTER_CALLBACKS */
 2388              		.loc 1 726 7 discriminator 4 view .LVU747
 2389 009a 2046     		mov	r0, r4
 2390 009c FFF7FEFF 		bl	HAL_I2S_ErrorCallback
 2391              	.LVL126:
 2392              	.L219:
 731:Drivers/STM32F4xx_HAL_Driver/Src/stm32f4xx_hal_i2s_ex.c ****     {
 2393              		.loc 1 731 5 view .LVU748
 731:Drivers/STM32F4xx_HAL_Driver/Src/stm32f4xx_hal_i2s_ex.c ****     {
 2394              		.loc 1 731 17 is_stmt 0 view .LVU749
ARM GAS  /var/folders/sd/sw6_rvdd1xd6sxxq8gkv_lph0000gn/T//cc7sexlg.s 			page 75


 2395 00a0 059B     		ldr	r3, [sp, #20]
 731:Drivers/STM32F4xx_HAL_Driver/Src/stm32f4xx_hal_i2s_ex.c ****     {
 2396              		.loc 1 731 8 view .LVU750
 2397 00a2 13F0080F 		tst	r3, #8
 2398 00a6 22D0     		beq	.L213
 731:Drivers/STM32F4xx_HAL_Driver/Src/stm32f4xx_hal_i2s_ex.c ****     {
 2399              		.loc 1 731 62 discriminator 1 view .LVU751
 2400 00a8 039B     		ldr	r3, [sp, #12]
 731:Drivers/STM32F4xx_HAL_Driver/Src/stm32f4xx_hal_i2s_ex.c ****     {
 2401              		.loc 1 731 50 discriminator 1 view .LVU752
 2402 00aa 13F0200F 		tst	r3, #32
 2403 00ae 1ED0     		beq	.L213
 734:Drivers/STM32F4xx_HAL_Driver/Src/stm32f4xx_hal_i2s_ex.c **** 
 2404              		.loc 1 734 7 is_stmt 1 view .LVU753
 2405 00b0 2268     		ldr	r2, [r4]
 2406 00b2 5368     		ldr	r3, [r2, #4]
 2407 00b4 23F0A003 		bic	r3, r3, #160
 2408 00b8 5360     		str	r3, [r2, #4]
 737:Drivers/STM32F4xx_HAL_Driver/Src/stm32f4xx_hal_i2s_ex.c **** 
 2409              		.loc 1 737 7 view .LVU754
 2410 00ba 2268     		ldr	r2, [r4]
 2411 00bc 444B     		ldr	r3, .L243
 2412 00be 9A42     		cmp	r2, r3
 2413 00c0 24D0     		beq	.L238
 2414 00c2 4FF04022 		mov	r2, #1073758208
 2415              	.L222:
 737:Drivers/STM32F4xx_HAL_Driver/Src/stm32f4xx_hal_i2s_ex.c **** 
 2416              		.loc 1 737 7 is_stmt 0 discriminator 4 view .LVU755
 2417 00c6 5368     		ldr	r3, [r2, #4]
 2418 00c8 23F06003 		bic	r3, r3, #96
 2419 00cc 5360     		str	r3, [r2, #4]
 740:Drivers/STM32F4xx_HAL_Driver/Src/stm32f4xx_hal_i2s_ex.c **** 
 2420              		.loc 1 740 7 is_stmt 1 discriminator 4 view .LVU756
 2421              	.LBB11:
 740:Drivers/STM32F4xx_HAL_Driver/Src/stm32f4xx_hal_i2s_ex.c **** 
 2422              		.loc 1 740 7 discriminator 4 view .LVU757
 2423 00ce 0023     		movs	r3, #0
 2424 00d0 0193     		str	r3, [sp, #4]
 740:Drivers/STM32F4xx_HAL_Driver/Src/stm32f4xx_hal_i2s_ex.c **** 
 2425              		.loc 1 740 7 discriminator 4 view .LVU758
 2426 00d2 2368     		ldr	r3, [r4]
 2427 00d4 9B68     		ldr	r3, [r3, #8]
 2428 00d6 0193     		str	r3, [sp, #4]
 740:Drivers/STM32F4xx_HAL_Driver/Src/stm32f4xx_hal_i2s_ex.c **** 
 2429              		.loc 1 740 7 discriminator 4 view .LVU759
 2430 00d8 019B     		ldr	r3, [sp, #4]
 2431              	.LBE11:
 740:Drivers/STM32F4xx_HAL_Driver/Src/stm32f4xx_hal_i2s_ex.c **** 
 2432              		.loc 1 740 7 discriminator 4 view .LVU760
 743:Drivers/STM32F4xx_HAL_Driver/Src/stm32f4xx_hal_i2s_ex.c **** 
 2433              		.loc 1 743 7 discriminator 4 view .LVU761
 743:Drivers/STM32F4xx_HAL_Driver/Src/stm32f4xx_hal_i2s_ex.c **** 
 2434              		.loc 1 743 19 is_stmt 0 discriminator 4 view .LVU762
 2435 00da 0123     		movs	r3, #1
 2436 00dc 84F84130 		strb	r3, [r4, #65]
 746:Drivers/STM32F4xx_HAL_Driver/Src/stm32f4xx_hal_i2s_ex.c ****       /* Call user error callback */
 2437              		.loc 1 746 7 is_stmt 1 discriminator 4 view .LVU763
ARM GAS  /var/folders/sd/sw6_rvdd1xd6sxxq8gkv_lph0000gn/T//cc7sexlg.s 			page 76


 2438 00e0 636C     		ldr	r3, [r4, #68]
 2439 00e2 43F00403 		orr	r3, r3, #4
 2440 00e6 6364     		str	r3, [r4, #68]
 751:Drivers/STM32F4xx_HAL_Driver/Src/stm32f4xx_hal_i2s_ex.c **** #endif /* USE_HAL_I2S_REGISTER_CALLBACKS */
 2441              		.loc 1 751 7 discriminator 4 view .LVU764
 2442 00e8 2046     		mov	r0, r4
 2443 00ea FFF7FEFF 		bl	HAL_I2S_ErrorCallback
 2444              	.LVL127:
 2445              	.L213:
 818:Drivers/STM32F4xx_HAL_Driver/Src/stm32f4xx_hal_i2s_ex.c **** 
 2446              		.loc 1 818 1 is_stmt 0 view .LVU765
 2447 00ee 06B0     		add	sp, sp, #24
 2448              	.LCFI18:
 2449              		.cfi_remember_state
 2450              		.cfi_def_cfa_offset 8
 2451              		@ sp needed
 2452 00f0 10BD     		pop	{r4, pc}
 2453              	.LVL128:
 2454              	.L234:
 2455              	.LCFI19:
 2456              		.cfi_restore_state
 682:Drivers/STM32F4xx_HAL_Driver/Src/stm32f4xx_hal_i2s_ex.c ****   __IO uint32_t i2scr2    = hi2s->Instance->CR2;
 2457              		.loc 1 682 29 view .LVU766
 2458 00f2 A2F58062 		sub	r2, r2, #1024
 2459 00f6 8EE7     		b	.L214
 2460              	.L235:
 694:Drivers/STM32F4xx_HAL_Driver/Src/stm32f4xx_hal_i2s_ex.c ****     }
 2461              		.loc 1 694 7 is_stmt 1 view .LVU767
 2462 00f8 2046     		mov	r0, r4
 2463              	.LVL129:
 694:Drivers/STM32F4xx_HAL_Driver/Src/stm32f4xx_hal_i2s_ex.c ****     }
 2464              		.loc 1 694 7 is_stmt 0 view .LVU768
 2465 00fa FFF7FEFF 		bl	I2SEx_TxISR_I2S
 2466              	.LVL130:
 2467 00fe 9EE7     		b	.L217
 2468              	.L236:
 702:Drivers/STM32F4xx_HAL_Driver/Src/stm32f4xx_hal_i2s_ex.c ****     }
 2469              		.loc 1 702 7 is_stmt 1 view .LVU769
 2470 0100 2046     		mov	r0, r4
 2471 0102 FFF7FEFF 		bl	I2SEx_RxISR_I2SExt
 2472              	.LVL131:
 2473 0106 A2E7     		b	.L218
 2474              	.L237:
 709:Drivers/STM32F4xx_HAL_Driver/Src/stm32f4xx_hal_i2s_ex.c **** 
 2475              		.loc 1 709 7 is_stmt 0 view .LVU770
 2476 0108 324A     		ldr	r2, .L243+4
 2477 010a AEE7     		b	.L220
 2478              	.L238:
 737:Drivers/STM32F4xx_HAL_Driver/Src/stm32f4xx_hal_i2s_ex.c **** 
 2479              		.loc 1 737 7 view .LVU771
 2480 010c 314A     		ldr	r2, .L243+4
 2481 010e DAE7     		b	.L222
 2482              	.LVL132:
 2483              	.L216:
 759:Drivers/STM32F4xx_HAL_Driver/Src/stm32f4xx_hal_i2s_ex.c ****     {
 2484              		.loc 1 759 5 is_stmt 1 view .LVU772
 759:Drivers/STM32F4xx_HAL_Driver/Src/stm32f4xx_hal_i2s_ex.c ****     {
ARM GAS  /var/folders/sd/sw6_rvdd1xd6sxxq8gkv_lph0000gn/T//cc7sexlg.s 			page 77


 2485              		.loc 1 759 20 is_stmt 0 view .LVU773
 2486 0110 049B     		ldr	r3, [sp, #16]
 759:Drivers/STM32F4xx_HAL_Driver/Src/stm32f4xx_hal_i2s_ex.c ****     {
 2487              		.loc 1 759 8 view .LVU774
 2488 0112 13F0020F 		tst	r3, #2
 2489 0116 03D0     		beq	.L223
 759:Drivers/STM32F4xx_HAL_Driver/Src/stm32f4xx_hal_i2s_ex.c ****     {
 2490              		.loc 1 759 68 discriminator 1 view .LVU775
 2491 0118 029B     		ldr	r3, [sp, #8]
 759:Drivers/STM32F4xx_HAL_Driver/Src/stm32f4xx_hal_i2s_ex.c ****     {
 2492              		.loc 1 759 53 discriminator 1 view .LVU776
 2493 011a 13F0800F 		tst	r3, #128
 2494 011e 4AD1     		bne	.L239
 2495              	.LVL133:
 2496              	.L223:
 767:Drivers/STM32F4xx_HAL_Driver/Src/stm32f4xx_hal_i2s_ex.c ****     {
 2497              		.loc 1 767 5 is_stmt 1 view .LVU777
 767:Drivers/STM32F4xx_HAL_Driver/Src/stm32f4xx_hal_i2s_ex.c ****     {
 2498              		.loc 1 767 17 is_stmt 0 view .LVU778
 2499 0120 059B     		ldr	r3, [sp, #20]
 767:Drivers/STM32F4xx_HAL_Driver/Src/stm32f4xx_hal_i2s_ex.c ****     {
 2500              		.loc 1 767 8 view .LVU779
 2501 0122 13F0010F 		tst	r3, #1
 2502 0126 03D0     		beq	.L224
 767:Drivers/STM32F4xx_HAL_Driver/Src/stm32f4xx_hal_i2s_ex.c ****     {
 2503              		.loc 1 767 64 discriminator 1 view .LVU780
 2504 0128 039B     		ldr	r3, [sp, #12]
 767:Drivers/STM32F4xx_HAL_Driver/Src/stm32f4xx_hal_i2s_ex.c ****     {
 2505              		.loc 1 767 52 discriminator 1 view .LVU781
 2506 012a 13F0400F 		tst	r3, #64
 2507 012e 46D1     		bne	.L240
 2508              	.L224:
 775:Drivers/STM32F4xx_HAL_Driver/Src/stm32f4xx_hal_i2s_ex.c ****     {
 2509              		.loc 1 775 5 is_stmt 1 view .LVU782
 775:Drivers/STM32F4xx_HAL_Driver/Src/stm32f4xx_hal_i2s_ex.c ****     {
 2510              		.loc 1 775 17 is_stmt 0 view .LVU783
 2511 0130 059B     		ldr	r3, [sp, #20]
 775:Drivers/STM32F4xx_HAL_Driver/Src/stm32f4xx_hal_i2s_ex.c ****     {
 2512              		.loc 1 775 8 view .LVU784
 2513 0132 13F0400F 		tst	r3, #64
 2514 0136 1CD0     		beq	.L225
 775:Drivers/STM32F4xx_HAL_Driver/Src/stm32f4xx_hal_i2s_ex.c ****     {
 2515              		.loc 1 775 62 discriminator 1 view .LVU785
 2516 0138 039B     		ldr	r3, [sp, #12]
 775:Drivers/STM32F4xx_HAL_Driver/Src/stm32f4xx_hal_i2s_ex.c ****     {
 2517              		.loc 1 775 50 discriminator 1 view .LVU786
 2518 013a 13F0200F 		tst	r3, #32
 2519 013e 18D0     		beq	.L225
 778:Drivers/STM32F4xx_HAL_Driver/Src/stm32f4xx_hal_i2s_ex.c **** 
 2520              		.loc 1 778 7 is_stmt 1 view .LVU787
 2521 0140 2268     		ldr	r2, [r4]
 2522 0142 5368     		ldr	r3, [r2, #4]
 2523 0144 23F06003 		bic	r3, r3, #96
 2524 0148 5360     		str	r3, [r2, #4]
 781:Drivers/STM32F4xx_HAL_Driver/Src/stm32f4xx_hal_i2s_ex.c **** 
 2525              		.loc 1 781 7 view .LVU788
 2526 014a 2268     		ldr	r2, [r4]
ARM GAS  /var/folders/sd/sw6_rvdd1xd6sxxq8gkv_lph0000gn/T//cc7sexlg.s 			page 78


 2527 014c 204B     		ldr	r3, .L243
 2528 014e 9A42     		cmp	r2, r3
 2529 0150 39D0     		beq	.L241
 2530 0152 4FF04022 		mov	r2, #1073758208
 2531              	.L226:
 781:Drivers/STM32F4xx_HAL_Driver/Src/stm32f4xx_hal_i2s_ex.c **** 
 2532              		.loc 1 781 7 is_stmt 0 discriminator 4 view .LVU789
 2533 0156 5368     		ldr	r3, [r2, #4]
 2534 0158 23F0A003 		bic	r3, r3, #160
 2535 015c 5360     		str	r3, [r2, #4]
 784:Drivers/STM32F4xx_HAL_Driver/Src/stm32f4xx_hal_i2s_ex.c **** 
 2536              		.loc 1 784 7 is_stmt 1 discriminator 4 view .LVU790
 784:Drivers/STM32F4xx_HAL_Driver/Src/stm32f4xx_hal_i2s_ex.c **** 
 2537              		.loc 1 784 19 is_stmt 0 discriminator 4 view .LVU791
 2538 015e 0123     		movs	r3, #1
 2539 0160 84F84130 		strb	r3, [r4, #65]
 787:Drivers/STM32F4xx_HAL_Driver/Src/stm32f4xx_hal_i2s_ex.c ****       /* Call user error callback */
 2540              		.loc 1 787 7 is_stmt 1 discriminator 4 view .LVU792
 2541 0164 636C     		ldr	r3, [r4, #68]
 2542 0166 43F00203 		orr	r3, r3, #2
 2543 016a 6364     		str	r3, [r4, #68]
 792:Drivers/STM32F4xx_HAL_Driver/Src/stm32f4xx_hal_i2s_ex.c **** #endif /* USE_HAL_I2S_REGISTER_CALLBACKS */
 2544              		.loc 1 792 7 discriminator 4 view .LVU793
 2545 016c 2046     		mov	r0, r4
 2546 016e FFF7FEFF 		bl	HAL_I2S_ErrorCallback
 2547              	.LVL134:
 2548              	.L225:
 797:Drivers/STM32F4xx_HAL_Driver/Src/stm32f4xx_hal_i2s_ex.c ****     {
 2549              		.loc 1 797 5 view .LVU794
 797:Drivers/STM32F4xx_HAL_Driver/Src/stm32f4xx_hal_i2s_ex.c ****     {
 2550              		.loc 1 797 20 is_stmt 0 view .LVU795
 2551 0172 049B     		ldr	r3, [sp, #16]
 797:Drivers/STM32F4xx_HAL_Driver/Src/stm32f4xx_hal_i2s_ex.c ****     {
 2552              		.loc 1 797 8 view .LVU796
 2553 0174 13F0080F 		tst	r3, #8
 2554 0178 B9D0     		beq	.L213
 797:Drivers/STM32F4xx_HAL_Driver/Src/stm32f4xx_hal_i2s_ex.c ****     {
 2555              		.loc 1 797 68 discriminator 1 view .LVU797
 2556 017a 029B     		ldr	r3, [sp, #8]
 797:Drivers/STM32F4xx_HAL_Driver/Src/stm32f4xx_hal_i2s_ex.c ****     {
 2557              		.loc 1 797 53 discriminator 1 view .LVU798
 2558 017c 13F0200F 		tst	r3, #32
 2559 0180 B5D0     		beq	.L213
 800:Drivers/STM32F4xx_HAL_Driver/Src/stm32f4xx_hal_i2s_ex.c **** 
 2560              		.loc 1 800 7 is_stmt 1 view .LVU799
 2561 0182 2268     		ldr	r2, [r4]
 2562 0184 124B     		ldr	r3, .L243
 2563 0186 9A42     		cmp	r2, r3
 2564 0188 1FD0     		beq	.L242
 2565 018a 4FF04022 		mov	r2, #1073758208
 2566              	.L227:
 800:Drivers/STM32F4xx_HAL_Driver/Src/stm32f4xx_hal_i2s_ex.c **** 
 2567              		.loc 1 800 7 is_stmt 0 discriminator 4 view .LVU800
 2568 018e 5368     		ldr	r3, [r2, #4]
 2569 0190 23F0A003 		bic	r3, r3, #160
 2570 0194 5360     		str	r3, [r2, #4]
 803:Drivers/STM32F4xx_HAL_Driver/Src/stm32f4xx_hal_i2s_ex.c **** 
ARM GAS  /var/folders/sd/sw6_rvdd1xd6sxxq8gkv_lph0000gn/T//cc7sexlg.s 			page 79


 2571              		.loc 1 803 7 is_stmt 1 discriminator 4 view .LVU801
 2572 0196 2268     		ldr	r2, [r4]
 2573 0198 5368     		ldr	r3, [r2, #4]
 2574 019a 23F06003 		bic	r3, r3, #96
 2575 019e 5360     		str	r3, [r2, #4]
 806:Drivers/STM32F4xx_HAL_Driver/Src/stm32f4xx_hal_i2s_ex.c **** 
 2576              		.loc 1 806 7 discriminator 4 view .LVU802
 806:Drivers/STM32F4xx_HAL_Driver/Src/stm32f4xx_hal_i2s_ex.c **** 
 2577              		.loc 1 806 19 is_stmt 0 discriminator 4 view .LVU803
 2578 01a0 0123     		movs	r3, #1
 2579 01a2 84F84130 		strb	r3, [r4, #65]
 809:Drivers/STM32F4xx_HAL_Driver/Src/stm32f4xx_hal_i2s_ex.c ****       /* Call user error callback */
 2580              		.loc 1 809 7 is_stmt 1 discriminator 4 view .LVU804
 2581 01a6 636C     		ldr	r3, [r4, #68]
 2582 01a8 43F00403 		orr	r3, r3, #4
 2583 01ac 6364     		str	r3, [r4, #68]
 814:Drivers/STM32F4xx_HAL_Driver/Src/stm32f4xx_hal_i2s_ex.c **** #endif /* USE_HAL_I2S_REGISTER_CALLBACKS */
 2584              		.loc 1 814 7 discriminator 4 view .LVU805
 2585 01ae 2046     		mov	r0, r4
 2586 01b0 FFF7FEFF 		bl	HAL_I2S_ErrorCallback
 2587              	.LVL135:
 818:Drivers/STM32F4xx_HAL_Driver/Src/stm32f4xx_hal_i2s_ex.c **** 
 2588              		.loc 1 818 1 is_stmt 0 discriminator 4 view .LVU806
 2589 01b4 9BE7     		b	.L213
 2590              	.LVL136:
 2591              	.L239:
 763:Drivers/STM32F4xx_HAL_Driver/Src/stm32f4xx_hal_i2s_ex.c ****     }
 2592              		.loc 1 763 7 is_stmt 1 view .LVU807
 2593 01b6 2046     		mov	r0, r4
 2594              	.LVL137:
 763:Drivers/STM32F4xx_HAL_Driver/Src/stm32f4xx_hal_i2s_ex.c ****     }
 2595              		.loc 1 763 7 is_stmt 0 view .LVU808
 2596 01b8 FFF7FEFF 		bl	I2SEx_TxISR_I2SExt
 2597              	.LVL138:
 2598 01bc B0E7     		b	.L223
 2599              	.L240:
 771:Drivers/STM32F4xx_HAL_Driver/Src/stm32f4xx_hal_i2s_ex.c ****     }
 2600              		.loc 1 771 7 is_stmt 1 view .LVU809
 2601 01be 2046     		mov	r0, r4
 2602 01c0 FFF7FEFF 		bl	I2SEx_RxISR_I2S
 2603              	.LVL139:
 2604 01c4 B4E7     		b	.L224
 2605              	.L241:
 781:Drivers/STM32F4xx_HAL_Driver/Src/stm32f4xx_hal_i2s_ex.c **** 
 2606              		.loc 1 781 7 is_stmt 0 view .LVU810
 2607 01c6 034A     		ldr	r2, .L243+4
 2608 01c8 C5E7     		b	.L226
 2609              	.L242:
 800:Drivers/STM32F4xx_HAL_Driver/Src/stm32f4xx_hal_i2s_ex.c **** 
 2610              		.loc 1 800 7 view .LVU811
 2611 01ca 024A     		ldr	r2, .L243+4
 2612 01cc DFE7     		b	.L227
 2613              	.L244:
 2614 01ce 00BF     		.align	2
 2615              	.L243:
 2616 01d0 00380040 		.word	1073756160
 2617 01d4 00340040 		.word	1073755136
ARM GAS  /var/folders/sd/sw6_rvdd1xd6sxxq8gkv_lph0000gn/T//cc7sexlg.s 			page 80


 2618              		.cfi_endproc
 2619              	.LFE133:
 2621              		.text
 2622              	.Letext0:
 2623              		.file 2 "/opt/homebrew/Caskroom/gcc-arm-embedded/10-2020-q4-major/gcc-arm-none-eabi-10-2020-q4-maj
 2624              		.file 3 "/opt/homebrew/Caskroom/gcc-arm-embedded/10-2020-q4-major/gcc-arm-none-eabi-10-2020-q4-maj
 2625              		.file 4 "Drivers/CMSIS/Device/ST/STM32F4xx/Include/stm32f407xx.h"
 2626              		.file 5 "Drivers/CMSIS/Device/ST/STM32F4xx/Include/stm32f4xx.h"
 2627              		.file 6 "Drivers/STM32F4xx_HAL_Driver/Inc/stm32f4xx_hal_def.h"
 2628              		.file 7 "Drivers/STM32F4xx_HAL_Driver/Inc/stm32f4xx_hal_dma.h"
 2629              		.file 8 "Drivers/STM32F4xx_HAL_Driver/Inc/stm32f4xx_hal_i2s.h"
 2630              		.file 9 "Drivers/STM32F4xx_HAL_Driver/Inc/stm32f4xx_hal.h"
ARM GAS  /var/folders/sd/sw6_rvdd1xd6sxxq8gkv_lph0000gn/T//cc7sexlg.s 			page 81


DEFINED SYMBOLS
                            *ABS*:0000000000000000 stm32f4xx_hal_i2s_ex.c
/var/folders/sd/sw6_rvdd1xd6sxxq8gkv_lph0000gn/T//cc7sexlg.s:18     .text.I2SEx_FullDuplexWaitFlagStateUntilTimeout:0000000000000000 $t
/var/folders/sd/sw6_rvdd1xd6sxxq8gkv_lph0000gn/T//cc7sexlg.s:25     .text.I2SEx_FullDuplexWaitFlagStateUntilTimeout:0000000000000000 I2SEx_FullDuplexWaitFlagStateUntilTimeout
/var/folders/sd/sw6_rvdd1xd6sxxq8gkv_lph0000gn/T//cc7sexlg.s:182    .text.I2SEx_FullDuplexWaitFlagStateUntilTimeout:00000000000000a8 $d
/var/folders/sd/sw6_rvdd1xd6sxxq8gkv_lph0000gn/T//cc7sexlg.s:187    .text.I2SEx_TxRxDMAError:0000000000000000 $t
/var/folders/sd/sw6_rvdd1xd6sxxq8gkv_lph0000gn/T//cc7sexlg.s:193    .text.I2SEx_TxRxDMAError:0000000000000000 I2SEx_TxRxDMAError
/var/folders/sd/sw6_rvdd1xd6sxxq8gkv_lph0000gn/T//cc7sexlg.s:254    .text.I2SEx_TxRxDMAError:0000000000000040 $d
/var/folders/sd/sw6_rvdd1xd6sxxq8gkv_lph0000gn/T//cc7sexlg.s:260    .text.HAL_I2SEx_TransmitReceive:0000000000000000 $t
/var/folders/sd/sw6_rvdd1xd6sxxq8gkv_lph0000gn/T//cc7sexlg.s:267    .text.HAL_I2SEx_TransmitReceive:0000000000000000 HAL_I2SEx_TransmitReceive
/var/folders/sd/sw6_rvdd1xd6sxxq8gkv_lph0000gn/T//cc7sexlg.s:856    .text.HAL_I2SEx_TransmitReceive:00000000000002c0 $d
/var/folders/sd/sw6_rvdd1xd6sxxq8gkv_lph0000gn/T//cc7sexlg.s:861    .text.HAL_I2SEx_TransmitReceive:00000000000002c8 $t
/var/folders/sd/sw6_rvdd1xd6sxxq8gkv_lph0000gn/T//cc7sexlg.s:961    .text.HAL_I2SEx_TransmitReceive_IT:0000000000000000 $t
/var/folders/sd/sw6_rvdd1xd6sxxq8gkv_lph0000gn/T//cc7sexlg.s:968    .text.HAL_I2SEx_TransmitReceive_IT:0000000000000000 HAL_I2SEx_TransmitReceive_IT
/var/folders/sd/sw6_rvdd1xd6sxxq8gkv_lph0000gn/T//cc7sexlg.s:1266   .text.HAL_I2SEx_TransmitReceive_IT:0000000000000194 $d
/var/folders/sd/sw6_rvdd1xd6sxxq8gkv_lph0000gn/T//cc7sexlg.s:1272   .text.HAL_I2SEx_TransmitReceive_DMA:0000000000000000 $t
/var/folders/sd/sw6_rvdd1xd6sxxq8gkv_lph0000gn/T//cc7sexlg.s:1279   .text.HAL_I2SEx_TransmitReceive_DMA:0000000000000000 HAL_I2SEx_TransmitReceive_DMA
/var/folders/sd/sw6_rvdd1xd6sxxq8gkv_lph0000gn/T//cc7sexlg.s:1702   .text.HAL_I2SEx_TransmitReceive_DMA:00000000000001d0 $d
/var/folders/sd/sw6_rvdd1xd6sxxq8gkv_lph0000gn/T//cc7sexlg.s:1739   .text.I2SEx_TxRxDMAHalfCplt:0000000000000000 I2SEx_TxRxDMAHalfCplt
/var/folders/sd/sw6_rvdd1xd6sxxq8gkv_lph0000gn/T//cc7sexlg.s:1794   .text.I2SEx_TxRxDMACplt:0000000000000000 I2SEx_TxRxDMACplt
/var/folders/sd/sw6_rvdd1xd6sxxq8gkv_lph0000gn/T//cc7sexlg.s:1711   .text.HAL_I2SEx_TxRxHalfCpltCallback:0000000000000000 $t
/var/folders/sd/sw6_rvdd1xd6sxxq8gkv_lph0000gn/T//cc7sexlg.s:1718   .text.HAL_I2SEx_TxRxHalfCpltCallback:0000000000000000 HAL_I2SEx_TxRxHalfCpltCallback
/var/folders/sd/sw6_rvdd1xd6sxxq8gkv_lph0000gn/T//cc7sexlg.s:1733   .text.I2SEx_TxRxDMAHalfCplt:0000000000000000 $t
/var/folders/sd/sw6_rvdd1xd6sxxq8gkv_lph0000gn/T//cc7sexlg.s:1766   .text.HAL_I2SEx_TxRxCpltCallback:0000000000000000 $t
/var/folders/sd/sw6_rvdd1xd6sxxq8gkv_lph0000gn/T//cc7sexlg.s:1773   .text.HAL_I2SEx_TxRxCpltCallback:0000000000000000 HAL_I2SEx_TxRxCpltCallback
/var/folders/sd/sw6_rvdd1xd6sxxq8gkv_lph0000gn/T//cc7sexlg.s:1788   .text.I2SEx_TxRxDMACplt:0000000000000000 $t
/var/folders/sd/sw6_rvdd1xd6sxxq8gkv_lph0000gn/T//cc7sexlg.s:1896   .text.I2SEx_TxRxDMACplt:0000000000000074 $d
/var/folders/sd/sw6_rvdd1xd6sxxq8gkv_lph0000gn/T//cc7sexlg.s:1902   .text.I2SEx_TxISR_I2S:0000000000000000 $t
/var/folders/sd/sw6_rvdd1xd6sxxq8gkv_lph0000gn/T//cc7sexlg.s:1908   .text.I2SEx_TxISR_I2S:0000000000000000 I2SEx_TxISR_I2S
/var/folders/sd/sw6_rvdd1xd6sxxq8gkv_lph0000gn/T//cc7sexlg.s:1977   .text.I2SEx_RxISR_I2SExt:0000000000000000 $t
/var/folders/sd/sw6_rvdd1xd6sxxq8gkv_lph0000gn/T//cc7sexlg.s:1983   .text.I2SEx_RxISR_I2SExt:0000000000000000 I2SEx_RxISR_I2SExt
/var/folders/sd/sw6_rvdd1xd6sxxq8gkv_lph0000gn/T//cc7sexlg.s:2070   .text.I2SEx_RxISR_I2SExt:000000000000005c $d
/var/folders/sd/sw6_rvdd1xd6sxxq8gkv_lph0000gn/T//cc7sexlg.s:2076   .text.I2SEx_TxISR_I2SExt:0000000000000000 $t
/var/folders/sd/sw6_rvdd1xd6sxxq8gkv_lph0000gn/T//cc7sexlg.s:2082   .text.I2SEx_TxISR_I2SExt:0000000000000000 I2SEx_TxISR_I2SExt
/var/folders/sd/sw6_rvdd1xd6sxxq8gkv_lph0000gn/T//cc7sexlg.s:2169   .text.I2SEx_TxISR_I2SExt:000000000000005c $d
/var/folders/sd/sw6_rvdd1xd6sxxq8gkv_lph0000gn/T//cc7sexlg.s:2175   .text.I2SEx_RxISR_I2S:0000000000000000 $t
/var/folders/sd/sw6_rvdd1xd6sxxq8gkv_lph0000gn/T//cc7sexlg.s:2181   .text.I2SEx_RxISR_I2S:0000000000000000 I2SEx_RxISR_I2S
/var/folders/sd/sw6_rvdd1xd6sxxq8gkv_lph0000gn/T//cc7sexlg.s:2250   .text.HAL_I2SEx_FullDuplex_IRQHandler:0000000000000000 $t
/var/folders/sd/sw6_rvdd1xd6sxxq8gkv_lph0000gn/T//cc7sexlg.s:2257   .text.HAL_I2SEx_FullDuplex_IRQHandler:0000000000000000 HAL_I2SEx_FullDuplex_IRQHandler
/var/folders/sd/sw6_rvdd1xd6sxxq8gkv_lph0000gn/T//cc7sexlg.s:2616   .text.HAL_I2SEx_FullDuplex_IRQHandler:00000000000001d0 $d

UNDEFINED SYMBOLS
HAL_GetTick
HAL_I2S_ErrorCallback
HAL_DMA_Start_IT
