ARM GAS  /var/folders/sd/sw6_rvdd1xd6sxxq8gkv_lph0000gn/T//ccRPaCU6.s 			page 1


   1              		.cpu cortex-m4
   2              		.eabi_attribute 27, 1
   3              		.eabi_attribute 28, 1
   4              		.eabi_attribute 20, 1
   5              		.eabi_attribute 21, 1
   6              		.eabi_attribute 23, 3
   7              		.eabi_attribute 24, 1
   8              		.eabi_attribute 25, 1
   9              		.eabi_attribute 26, 1
  10              		.eabi_attribute 30, 1
  11              		.eabi_attribute 34, 1
  12              		.eabi_attribute 18, 4
  13              		.file	"usbh_conf.c"
  14              		.text
  15              	.Ltext0:
  16              		.cfi_sections	.debug_frame
  17              		.section	.text.HAL_HCD_MspInit,"ax",%progbits
  18              		.align	1
  19              		.global	HAL_HCD_MspInit
  20              		.arch armv7e-m
  21              		.syntax unified
  22              		.thumb
  23              		.thumb_func
  24              		.fpu fpv4-sp-d16
  26              	HAL_HCD_MspInit:
  27              	.LVL0:
  28              	.LFB133:
  29              		.file 1 "USB_HOST/Target/usbh_conf.c"
   1:USB_HOST/Target/usbh_conf.c **** /* USER CODE BEGIN Header */
   2:USB_HOST/Target/usbh_conf.c **** /**
   3:USB_HOST/Target/usbh_conf.c ****   ******************************************************************************
   4:USB_HOST/Target/usbh_conf.c ****   * @file           : Target/usbh_conf.c
   5:USB_HOST/Target/usbh_conf.c ****   * @version        : v1.0_Cube
   6:USB_HOST/Target/usbh_conf.c ****   * @brief          : This file implements the board support package for the USB host library
   7:USB_HOST/Target/usbh_conf.c ****   ******************************************************************************
   8:USB_HOST/Target/usbh_conf.c ****   * @attention
   9:USB_HOST/Target/usbh_conf.c ****   *
  10:USB_HOST/Target/usbh_conf.c ****   * <h2><center>&copy; Copyright (c) 2021 STMicroelectronics.
  11:USB_HOST/Target/usbh_conf.c ****   * All rights reserved.</center></h2>
  12:USB_HOST/Target/usbh_conf.c ****   *
  13:USB_HOST/Target/usbh_conf.c ****   * This software component is licensed by ST under Ultimate Liberty license
  14:USB_HOST/Target/usbh_conf.c ****   * SLA0044, the "License"; You may not use this file except in compliance with
  15:USB_HOST/Target/usbh_conf.c ****   * the License. You may obtain a copy of the License at:
  16:USB_HOST/Target/usbh_conf.c ****   *                             www.st.com/SLA0044
  17:USB_HOST/Target/usbh_conf.c ****   *
  18:USB_HOST/Target/usbh_conf.c ****   ******************************************************************************
  19:USB_HOST/Target/usbh_conf.c ****   */
  20:USB_HOST/Target/usbh_conf.c **** /* USER CODE END Header */
  21:USB_HOST/Target/usbh_conf.c **** 
  22:USB_HOST/Target/usbh_conf.c **** /* Includes ------------------------------------------------------------------*/
  23:USB_HOST/Target/usbh_conf.c **** #include "usbh_core.h"
  24:USB_HOST/Target/usbh_conf.c **** #include "usbh_platform.h"
  25:USB_HOST/Target/usbh_conf.c **** 
  26:USB_HOST/Target/usbh_conf.c **** /* USER CODE BEGIN Includes */
  27:USB_HOST/Target/usbh_conf.c **** 
  28:USB_HOST/Target/usbh_conf.c **** /* USER CODE END Includes */
  29:USB_HOST/Target/usbh_conf.c **** 
ARM GAS  /var/folders/sd/sw6_rvdd1xd6sxxq8gkv_lph0000gn/T//ccRPaCU6.s 			page 2


  30:USB_HOST/Target/usbh_conf.c **** /* Private typedef -----------------------------------------------------------*/
  31:USB_HOST/Target/usbh_conf.c **** /* Private define ------------------------------------------------------------*/
  32:USB_HOST/Target/usbh_conf.c **** /* Private macro -------------------------------------------------------------*/
  33:USB_HOST/Target/usbh_conf.c **** 
  34:USB_HOST/Target/usbh_conf.c **** /* USER CODE BEGIN PV */
  35:USB_HOST/Target/usbh_conf.c **** /* Private variables ---------------------------------------------------------*/
  36:USB_HOST/Target/usbh_conf.c **** 
  37:USB_HOST/Target/usbh_conf.c **** /* USER CODE END PV */
  38:USB_HOST/Target/usbh_conf.c **** 
  39:USB_HOST/Target/usbh_conf.c **** HCD_HandleTypeDef hhcd_USB_OTG_FS;
  40:USB_HOST/Target/usbh_conf.c **** void Error_Handler(void);
  41:USB_HOST/Target/usbh_conf.c **** 
  42:USB_HOST/Target/usbh_conf.c **** /* USER CODE BEGIN 0 */
  43:USB_HOST/Target/usbh_conf.c **** 
  44:USB_HOST/Target/usbh_conf.c **** /* USER CODE END 0 */
  45:USB_HOST/Target/usbh_conf.c **** 
  46:USB_HOST/Target/usbh_conf.c **** /* USER CODE BEGIN PFP */
  47:USB_HOST/Target/usbh_conf.c **** /* Private function prototypes -----------------------------------------------*/
  48:USB_HOST/Target/usbh_conf.c **** USBH_StatusTypeDef USBH_Get_USB_Status(HAL_StatusTypeDef hal_status);
  49:USB_HOST/Target/usbh_conf.c **** 
  50:USB_HOST/Target/usbh_conf.c **** /* USER CODE END PFP */
  51:USB_HOST/Target/usbh_conf.c **** 
  52:USB_HOST/Target/usbh_conf.c **** /* Private functions ---------------------------------------------------------*/
  53:USB_HOST/Target/usbh_conf.c **** 
  54:USB_HOST/Target/usbh_conf.c **** /* USER CODE BEGIN 1 */
  55:USB_HOST/Target/usbh_conf.c **** 
  56:USB_HOST/Target/usbh_conf.c **** /* USER CODE END 1 */
  57:USB_HOST/Target/usbh_conf.c **** 
  58:USB_HOST/Target/usbh_conf.c **** /*******************************************************************************
  59:USB_HOST/Target/usbh_conf.c ****                        LL Driver Callbacks (HCD -> USB Host Library)
  60:USB_HOST/Target/usbh_conf.c **** *******************************************************************************/
  61:USB_HOST/Target/usbh_conf.c **** /* MSP Init */
  62:USB_HOST/Target/usbh_conf.c **** 
  63:USB_HOST/Target/usbh_conf.c **** void HAL_HCD_MspInit(HCD_HandleTypeDef* hcdHandle)
  64:USB_HOST/Target/usbh_conf.c **** {
  30              		.loc 1 64 1 view -0
  31              		.cfi_startproc
  32              		@ args = 0, pretend = 0, frame = 32
  33              		@ frame_needed = 0, uses_anonymous_args = 0
  34              		.loc 1 64 1 is_stmt 0 view .LVU1
  35 0000 70B5     		push	{r4, r5, r6, lr}
  36              	.LCFI0:
  37              		.cfi_def_cfa_offset 16
  38              		.cfi_offset 4, -16
  39              		.cfi_offset 5, -12
  40              		.cfi_offset 6, -8
  41              		.cfi_offset 14, -4
  42 0002 88B0     		sub	sp, sp, #32
  43              	.LCFI1:
  44              		.cfi_def_cfa_offset 48
  65:USB_HOST/Target/usbh_conf.c ****   GPIO_InitTypeDef GPIO_InitStruct = {0};
  45              		.loc 1 65 3 is_stmt 1 view .LVU2
  46              		.loc 1 65 20 is_stmt 0 view .LVU3
  47 0004 0023     		movs	r3, #0
  48 0006 0393     		str	r3, [sp, #12]
  49 0008 0493     		str	r3, [sp, #16]
  50 000a 0593     		str	r3, [sp, #20]
ARM GAS  /var/folders/sd/sw6_rvdd1xd6sxxq8gkv_lph0000gn/T//ccRPaCU6.s 			page 3


  51 000c 0693     		str	r3, [sp, #24]
  52 000e 0793     		str	r3, [sp, #28]
  66:USB_HOST/Target/usbh_conf.c ****   if(hcdHandle->Instance==USB_OTG_FS)
  53              		.loc 1 66 3 is_stmt 1 view .LVU4
  54              		.loc 1 66 15 is_stmt 0 view .LVU5
  55 0010 0368     		ldr	r3, [r0]
  56              		.loc 1 66 5 view .LVU6
  57 0012 B3F1A04F 		cmp	r3, #1342177280
  58 0016 01D0     		beq	.L4
  59              	.LVL1:
  60              	.L1:
  67:USB_HOST/Target/usbh_conf.c ****   {
  68:USB_HOST/Target/usbh_conf.c ****   /* USER CODE BEGIN USB_OTG_FS_MspInit 0 */
  69:USB_HOST/Target/usbh_conf.c **** 
  70:USB_HOST/Target/usbh_conf.c ****   /* USER CODE END USB_OTG_FS_MspInit 0 */
  71:USB_HOST/Target/usbh_conf.c **** 
  72:USB_HOST/Target/usbh_conf.c ****     __HAL_RCC_GPIOA_CLK_ENABLE();
  73:USB_HOST/Target/usbh_conf.c ****     /**USB_OTG_FS GPIO Configuration
  74:USB_HOST/Target/usbh_conf.c ****     PA9     ------> USB_OTG_FS_VBUS
  75:USB_HOST/Target/usbh_conf.c ****     PA10     ------> USB_OTG_FS_ID
  76:USB_HOST/Target/usbh_conf.c ****     PA11     ------> USB_OTG_FS_DM
  77:USB_HOST/Target/usbh_conf.c ****     PA12     ------> USB_OTG_FS_DP
  78:USB_HOST/Target/usbh_conf.c ****     */
  79:USB_HOST/Target/usbh_conf.c ****     GPIO_InitStruct.Pin = VBUS_FS_Pin;
  80:USB_HOST/Target/usbh_conf.c ****     GPIO_InitStruct.Mode = GPIO_MODE_INPUT;
  81:USB_HOST/Target/usbh_conf.c ****     GPIO_InitStruct.Pull = GPIO_NOPULL;
  82:USB_HOST/Target/usbh_conf.c ****     HAL_GPIO_Init(VBUS_FS_GPIO_Port, &GPIO_InitStruct);
  83:USB_HOST/Target/usbh_conf.c **** 
  84:USB_HOST/Target/usbh_conf.c ****     GPIO_InitStruct.Pin = OTG_FS_ID_Pin|OTG_FS_DM_Pin|OTG_FS_DP_Pin;
  85:USB_HOST/Target/usbh_conf.c ****     GPIO_InitStruct.Mode = GPIO_MODE_AF_PP;
  86:USB_HOST/Target/usbh_conf.c ****     GPIO_InitStruct.Pull = GPIO_NOPULL;
  87:USB_HOST/Target/usbh_conf.c ****     GPIO_InitStruct.Speed = GPIO_SPEED_FREQ_LOW;
  88:USB_HOST/Target/usbh_conf.c ****     GPIO_InitStruct.Alternate = GPIO_AF10_OTG_FS;
  89:USB_HOST/Target/usbh_conf.c ****     HAL_GPIO_Init(GPIOA, &GPIO_InitStruct);
  90:USB_HOST/Target/usbh_conf.c **** 
  91:USB_HOST/Target/usbh_conf.c ****     /* Peripheral clock enable */
  92:USB_HOST/Target/usbh_conf.c ****     __HAL_RCC_USB_OTG_FS_CLK_ENABLE();
  93:USB_HOST/Target/usbh_conf.c **** 
  94:USB_HOST/Target/usbh_conf.c ****     /* Peripheral interrupt init */
  95:USB_HOST/Target/usbh_conf.c ****     HAL_NVIC_SetPriority(OTG_FS_IRQn, 0, 0);
  96:USB_HOST/Target/usbh_conf.c ****     HAL_NVIC_EnableIRQ(OTG_FS_IRQn);
  97:USB_HOST/Target/usbh_conf.c ****   /* USER CODE BEGIN USB_OTG_FS_MspInit 1 */
  98:USB_HOST/Target/usbh_conf.c **** 
  99:USB_HOST/Target/usbh_conf.c ****   /* USER CODE END USB_OTG_FS_MspInit 1 */
 100:USB_HOST/Target/usbh_conf.c ****   }
 101:USB_HOST/Target/usbh_conf.c **** }
  61              		.loc 1 101 1 view .LVU7
  62 0018 08B0     		add	sp, sp, #32
  63              	.LCFI2:
  64              		.cfi_remember_state
  65              		.cfi_def_cfa_offset 16
  66              		@ sp needed
  67 001a 70BD     		pop	{r4, r5, r6, pc}
  68              	.LVL2:
  69              	.L4:
  70              	.LCFI3:
  71              		.cfi_restore_state
ARM GAS  /var/folders/sd/sw6_rvdd1xd6sxxq8gkv_lph0000gn/T//ccRPaCU6.s 			page 4


  72:USB_HOST/Target/usbh_conf.c ****     /**USB_OTG_FS GPIO Configuration
  72              		.loc 1 72 5 is_stmt 1 view .LVU8
  73              	.LBB2:
  72:USB_HOST/Target/usbh_conf.c ****     /**USB_OTG_FS GPIO Configuration
  74              		.loc 1 72 5 view .LVU9
  75 001c 0025     		movs	r5, #0
  76 001e 0195     		str	r5, [sp, #4]
  72:USB_HOST/Target/usbh_conf.c ****     /**USB_OTG_FS GPIO Configuration
  77              		.loc 1 72 5 view .LVU10
  78 0020 1A4C     		ldr	r4, .L5
  79 0022 236B     		ldr	r3, [r4, #48]
  80 0024 43F00103 		orr	r3, r3, #1
  81 0028 2363     		str	r3, [r4, #48]
  72:USB_HOST/Target/usbh_conf.c ****     /**USB_OTG_FS GPIO Configuration
  82              		.loc 1 72 5 view .LVU11
  83 002a 236B     		ldr	r3, [r4, #48]
  84 002c 03F00103 		and	r3, r3, #1
  85 0030 0193     		str	r3, [sp, #4]
  72:USB_HOST/Target/usbh_conf.c ****     /**USB_OTG_FS GPIO Configuration
  86              		.loc 1 72 5 view .LVU12
  87 0032 019B     		ldr	r3, [sp, #4]
  88              	.LBE2:
  72:USB_HOST/Target/usbh_conf.c ****     /**USB_OTG_FS GPIO Configuration
  89              		.loc 1 72 5 view .LVU13
  79:USB_HOST/Target/usbh_conf.c ****     GPIO_InitStruct.Mode = GPIO_MODE_INPUT;
  90              		.loc 1 79 5 view .LVU14
  79:USB_HOST/Target/usbh_conf.c ****     GPIO_InitStruct.Mode = GPIO_MODE_INPUT;
  91              		.loc 1 79 25 is_stmt 0 view .LVU15
  92 0034 4FF40073 		mov	r3, #512
  93 0038 0393     		str	r3, [sp, #12]
  80:USB_HOST/Target/usbh_conf.c ****     GPIO_InitStruct.Pull = GPIO_NOPULL;
  94              		.loc 1 80 5 is_stmt 1 view .LVU16
  81:USB_HOST/Target/usbh_conf.c ****     HAL_GPIO_Init(VBUS_FS_GPIO_Port, &GPIO_InitStruct);
  95              		.loc 1 81 5 view .LVU17
  82:USB_HOST/Target/usbh_conf.c **** 
  96              		.loc 1 82 5 view .LVU18
  97 003a 154E     		ldr	r6, .L5+4
  98 003c 03A9     		add	r1, sp, #12
  99 003e 3046     		mov	r0, r6
 100              	.LVL3:
  82:USB_HOST/Target/usbh_conf.c **** 
 101              		.loc 1 82 5 is_stmt 0 view .LVU19
 102 0040 FFF7FEFF 		bl	HAL_GPIO_Init
 103              	.LVL4:
  84:USB_HOST/Target/usbh_conf.c ****     GPIO_InitStruct.Mode = GPIO_MODE_AF_PP;
 104              		.loc 1 84 5 is_stmt 1 view .LVU20
  84:USB_HOST/Target/usbh_conf.c ****     GPIO_InitStruct.Mode = GPIO_MODE_AF_PP;
 105              		.loc 1 84 25 is_stmt 0 view .LVU21
 106 0044 4FF4E053 		mov	r3, #7168
 107 0048 0393     		str	r3, [sp, #12]
  85:USB_HOST/Target/usbh_conf.c ****     GPIO_InitStruct.Pull = GPIO_NOPULL;
 108              		.loc 1 85 5 is_stmt 1 view .LVU22
  85:USB_HOST/Target/usbh_conf.c ****     GPIO_InitStruct.Pull = GPIO_NOPULL;
 109              		.loc 1 85 26 is_stmt 0 view .LVU23
 110 004a 0223     		movs	r3, #2
 111 004c 0493     		str	r3, [sp, #16]
  86:USB_HOST/Target/usbh_conf.c ****     GPIO_InitStruct.Speed = GPIO_SPEED_FREQ_LOW;
ARM GAS  /var/folders/sd/sw6_rvdd1xd6sxxq8gkv_lph0000gn/T//ccRPaCU6.s 			page 5


 112              		.loc 1 86 5 is_stmt 1 view .LVU24
  86:USB_HOST/Target/usbh_conf.c ****     GPIO_InitStruct.Speed = GPIO_SPEED_FREQ_LOW;
 113              		.loc 1 86 26 is_stmt 0 view .LVU25
 114 004e 0595     		str	r5, [sp, #20]
  87:USB_HOST/Target/usbh_conf.c ****     GPIO_InitStruct.Alternate = GPIO_AF10_OTG_FS;
 115              		.loc 1 87 5 is_stmt 1 view .LVU26
  87:USB_HOST/Target/usbh_conf.c ****     GPIO_InitStruct.Alternate = GPIO_AF10_OTG_FS;
 116              		.loc 1 87 27 is_stmt 0 view .LVU27
 117 0050 0695     		str	r5, [sp, #24]
  88:USB_HOST/Target/usbh_conf.c ****     HAL_GPIO_Init(GPIOA, &GPIO_InitStruct);
 118              		.loc 1 88 5 is_stmt 1 view .LVU28
  88:USB_HOST/Target/usbh_conf.c ****     HAL_GPIO_Init(GPIOA, &GPIO_InitStruct);
 119              		.loc 1 88 31 is_stmt 0 view .LVU29
 120 0052 0A23     		movs	r3, #10
 121 0054 0793     		str	r3, [sp, #28]
  89:USB_HOST/Target/usbh_conf.c **** 
 122              		.loc 1 89 5 is_stmt 1 view .LVU30
 123 0056 03A9     		add	r1, sp, #12
 124 0058 3046     		mov	r0, r6
 125 005a FFF7FEFF 		bl	HAL_GPIO_Init
 126              	.LVL5:
  92:USB_HOST/Target/usbh_conf.c **** 
 127              		.loc 1 92 5 view .LVU31
  92:USB_HOST/Target/usbh_conf.c **** 
 128              		.loc 1 92 5 view .LVU32
 129 005e 636B     		ldr	r3, [r4, #52]
 130 0060 43F08003 		orr	r3, r3, #128
 131 0064 6363     		str	r3, [r4, #52]
  92:USB_HOST/Target/usbh_conf.c **** 
 132              		.loc 1 92 5 view .LVU33
 133              	.LBB3:
  92:USB_HOST/Target/usbh_conf.c **** 
 134              		.loc 1 92 5 view .LVU34
 135 0066 0295     		str	r5, [sp, #8]
  92:USB_HOST/Target/usbh_conf.c **** 
 136              		.loc 1 92 5 view .LVU35
 137 0068 636C     		ldr	r3, [r4, #68]
 138 006a 43F48043 		orr	r3, r3, #16384
 139 006e 6364     		str	r3, [r4, #68]
  92:USB_HOST/Target/usbh_conf.c **** 
 140              		.loc 1 92 5 view .LVU36
 141 0070 636C     		ldr	r3, [r4, #68]
 142 0072 03F48043 		and	r3, r3, #16384
 143 0076 0293     		str	r3, [sp, #8]
  92:USB_HOST/Target/usbh_conf.c **** 
 144              		.loc 1 92 5 view .LVU37
 145 0078 029B     		ldr	r3, [sp, #8]
 146              	.LBE3:
  92:USB_HOST/Target/usbh_conf.c **** 
 147              		.loc 1 92 5 view .LVU38
  92:USB_HOST/Target/usbh_conf.c **** 
 148              		.loc 1 92 5 view .LVU39
  95:USB_HOST/Target/usbh_conf.c ****     HAL_NVIC_EnableIRQ(OTG_FS_IRQn);
 149              		.loc 1 95 5 view .LVU40
 150 007a 2A46     		mov	r2, r5
 151 007c 2946     		mov	r1, r5
 152 007e 4320     		movs	r0, #67
ARM GAS  /var/folders/sd/sw6_rvdd1xd6sxxq8gkv_lph0000gn/T//ccRPaCU6.s 			page 6


 153 0080 FFF7FEFF 		bl	HAL_NVIC_SetPriority
 154              	.LVL6:
  96:USB_HOST/Target/usbh_conf.c ****   /* USER CODE BEGIN USB_OTG_FS_MspInit 1 */
 155              		.loc 1 96 5 view .LVU41
 156 0084 4320     		movs	r0, #67
 157 0086 FFF7FEFF 		bl	HAL_NVIC_EnableIRQ
 158              	.LVL7:
 159              		.loc 1 101 1 is_stmt 0 view .LVU42
 160 008a C5E7     		b	.L1
 161              	.L6:
 162              		.align	2
 163              	.L5:
 164 008c 00380240 		.word	1073887232
 165 0090 00000240 		.word	1073872896
 166              		.cfi_endproc
 167              	.LFE133:
 169              		.section	.text.HAL_HCD_MspDeInit,"ax",%progbits
 170              		.align	1
 171              		.global	HAL_HCD_MspDeInit
 172              		.syntax unified
 173              		.thumb
 174              		.thumb_func
 175              		.fpu fpv4-sp-d16
 177              	HAL_HCD_MspDeInit:
 178              	.LVL8:
 179              	.LFB134:
 102:USB_HOST/Target/usbh_conf.c **** 
 103:USB_HOST/Target/usbh_conf.c **** void HAL_HCD_MspDeInit(HCD_HandleTypeDef* hcdHandle)
 104:USB_HOST/Target/usbh_conf.c **** {
 180              		.loc 1 104 1 is_stmt 1 view -0
 181              		.cfi_startproc
 182              		@ args = 0, pretend = 0, frame = 0
 183              		@ frame_needed = 0, uses_anonymous_args = 0
 184              		.loc 1 104 1 is_stmt 0 view .LVU44
 185 0000 08B5     		push	{r3, lr}
 186              	.LCFI4:
 187              		.cfi_def_cfa_offset 8
 188              		.cfi_offset 3, -8
 189              		.cfi_offset 14, -4
 105:USB_HOST/Target/usbh_conf.c ****   if(hcdHandle->Instance==USB_OTG_FS)
 190              		.loc 1 105 3 is_stmt 1 view .LVU45
 191              		.loc 1 105 15 is_stmt 0 view .LVU46
 192 0002 0368     		ldr	r3, [r0]
 193              		.loc 1 105 5 view .LVU47
 194 0004 B3F1A04F 		cmp	r3, #1342177280
 195 0008 00D0     		beq	.L10
 196              	.LVL9:
 197              	.L7:
 106:USB_HOST/Target/usbh_conf.c ****   {
 107:USB_HOST/Target/usbh_conf.c ****   /* USER CODE BEGIN USB_OTG_FS_MspDeInit 0 */
 108:USB_HOST/Target/usbh_conf.c **** 
 109:USB_HOST/Target/usbh_conf.c ****   /* USER CODE END USB_OTG_FS_MspDeInit 0 */
 110:USB_HOST/Target/usbh_conf.c ****     /* Peripheral clock disable */
 111:USB_HOST/Target/usbh_conf.c ****     __HAL_RCC_USB_OTG_FS_CLK_DISABLE();
 112:USB_HOST/Target/usbh_conf.c **** 
 113:USB_HOST/Target/usbh_conf.c ****     /**USB_OTG_FS GPIO Configuration
 114:USB_HOST/Target/usbh_conf.c ****     PA9     ------> USB_OTG_FS_VBUS
ARM GAS  /var/folders/sd/sw6_rvdd1xd6sxxq8gkv_lph0000gn/T//ccRPaCU6.s 			page 7


 115:USB_HOST/Target/usbh_conf.c ****     PA10     ------> USB_OTG_FS_ID
 116:USB_HOST/Target/usbh_conf.c ****     PA11     ------> USB_OTG_FS_DM
 117:USB_HOST/Target/usbh_conf.c ****     PA12     ------> USB_OTG_FS_DP
 118:USB_HOST/Target/usbh_conf.c ****     */
 119:USB_HOST/Target/usbh_conf.c ****     HAL_GPIO_DeInit(GPIOA, VBUS_FS_Pin|OTG_FS_ID_Pin|OTG_FS_DM_Pin|OTG_FS_DP_Pin);
 120:USB_HOST/Target/usbh_conf.c **** 
 121:USB_HOST/Target/usbh_conf.c ****     /* Peripheral interrupt Deinit*/
 122:USB_HOST/Target/usbh_conf.c ****     HAL_NVIC_DisableIRQ(OTG_FS_IRQn);
 123:USB_HOST/Target/usbh_conf.c **** 
 124:USB_HOST/Target/usbh_conf.c ****   /* USER CODE BEGIN USB_OTG_FS_MspDeInit 1 */
 125:USB_HOST/Target/usbh_conf.c **** 
 126:USB_HOST/Target/usbh_conf.c ****   /* USER CODE END USB_OTG_FS_MspDeInit 1 */
 127:USB_HOST/Target/usbh_conf.c ****   }
 128:USB_HOST/Target/usbh_conf.c **** }
 198              		.loc 1 128 1 view .LVU48
 199 000a 08BD     		pop	{r3, pc}
 200              	.LVL10:
 201              	.L10:
 111:USB_HOST/Target/usbh_conf.c **** 
 202              		.loc 1 111 5 is_stmt 1 view .LVU49
 203 000c 064A     		ldr	r2, .L11
 204 000e 536B     		ldr	r3, [r2, #52]
 205 0010 23F08003 		bic	r3, r3, #128
 206 0014 5363     		str	r3, [r2, #52]
 119:USB_HOST/Target/usbh_conf.c **** 
 207              		.loc 1 119 5 view .LVU50
 208 0016 4FF4F051 		mov	r1, #7680
 209 001a 0448     		ldr	r0, .L11+4
 210              	.LVL11:
 119:USB_HOST/Target/usbh_conf.c **** 
 211              		.loc 1 119 5 is_stmt 0 view .LVU51
 212 001c FFF7FEFF 		bl	HAL_GPIO_DeInit
 213              	.LVL12:
 122:USB_HOST/Target/usbh_conf.c **** 
 214              		.loc 1 122 5 is_stmt 1 view .LVU52
 215 0020 4320     		movs	r0, #67
 216 0022 FFF7FEFF 		bl	HAL_NVIC_DisableIRQ
 217              	.LVL13:
 218              		.loc 1 128 1 is_stmt 0 view .LVU53
 219 0026 F0E7     		b	.L7
 220              	.L12:
 221              		.align	2
 222              	.L11:
 223 0028 00380240 		.word	1073887232
 224 002c 00000240 		.word	1073872896
 225              		.cfi_endproc
 226              	.LFE134:
 228              		.section	.text.HAL_HCD_SOF_Callback,"ax",%progbits
 229              		.align	1
 230              		.global	HAL_HCD_SOF_Callback
 231              		.syntax unified
 232              		.thumb
 233              		.thumb_func
 234              		.fpu fpv4-sp-d16
 236              	HAL_HCD_SOF_Callback:
 237              	.LVL14:
 238              	.LFB135:
ARM GAS  /var/folders/sd/sw6_rvdd1xd6sxxq8gkv_lph0000gn/T//ccRPaCU6.s 			page 8


 129:USB_HOST/Target/usbh_conf.c **** 
 130:USB_HOST/Target/usbh_conf.c **** /**
 131:USB_HOST/Target/usbh_conf.c ****   * @brief  SOF callback.
 132:USB_HOST/Target/usbh_conf.c ****   * @param  hhcd: HCD handle
 133:USB_HOST/Target/usbh_conf.c ****   * @retval None
 134:USB_HOST/Target/usbh_conf.c ****   */
 135:USB_HOST/Target/usbh_conf.c **** void HAL_HCD_SOF_Callback(HCD_HandleTypeDef *hhcd)
 136:USB_HOST/Target/usbh_conf.c **** {
 239              		.loc 1 136 1 is_stmt 1 view -0
 240              		.cfi_startproc
 241              		@ args = 0, pretend = 0, frame = 0
 242              		@ frame_needed = 0, uses_anonymous_args = 0
 243              		.loc 1 136 1 is_stmt 0 view .LVU55
 244 0000 08B5     		push	{r3, lr}
 245              	.LCFI5:
 246              		.cfi_def_cfa_offset 8
 247              		.cfi_offset 3, -8
 248              		.cfi_offset 14, -4
 137:USB_HOST/Target/usbh_conf.c ****   USBH_LL_IncTimer(hhcd->pData);
 249              		.loc 1 137 3 is_stmt 1 view .LVU56
 250 0002 D0F80003 		ldr	r0, [r0, #768]
 251              	.LVL15:
 252              		.loc 1 137 3 is_stmt 0 view .LVU57
 253 0006 FFF7FEFF 		bl	USBH_LL_IncTimer
 254              	.LVL16:
 138:USB_HOST/Target/usbh_conf.c **** }
 255              		.loc 1 138 1 view .LVU58
 256 000a 08BD     		pop	{r3, pc}
 257              		.cfi_endproc
 258              	.LFE135:
 260              		.section	.text.HAL_HCD_Connect_Callback,"ax",%progbits
 261              		.align	1
 262              		.global	HAL_HCD_Connect_Callback
 263              		.syntax unified
 264              		.thumb
 265              		.thumb_func
 266              		.fpu fpv4-sp-d16
 268              	HAL_HCD_Connect_Callback:
 269              	.LVL17:
 270              	.LFB136:
 139:USB_HOST/Target/usbh_conf.c **** 
 140:USB_HOST/Target/usbh_conf.c **** /**
 141:USB_HOST/Target/usbh_conf.c ****   * @brief  SOF callback.
 142:USB_HOST/Target/usbh_conf.c ****   * @param  hhcd: HCD handle
 143:USB_HOST/Target/usbh_conf.c ****   * @retval None
 144:USB_HOST/Target/usbh_conf.c ****   */
 145:USB_HOST/Target/usbh_conf.c **** void HAL_HCD_Connect_Callback(HCD_HandleTypeDef *hhcd)
 146:USB_HOST/Target/usbh_conf.c **** {
 271              		.loc 1 146 1 is_stmt 1 view -0
 272              		.cfi_startproc
 273              		@ args = 0, pretend = 0, frame = 0
 274              		@ frame_needed = 0, uses_anonymous_args = 0
 275              		.loc 1 146 1 is_stmt 0 view .LVU60
 276 0000 08B5     		push	{r3, lr}
 277              	.LCFI6:
 278              		.cfi_def_cfa_offset 8
 279              		.cfi_offset 3, -8
ARM GAS  /var/folders/sd/sw6_rvdd1xd6sxxq8gkv_lph0000gn/T//ccRPaCU6.s 			page 9


 280              		.cfi_offset 14, -4
 147:USB_HOST/Target/usbh_conf.c ****   USBH_LL_Connect(hhcd->pData);
 281              		.loc 1 147 3 is_stmt 1 view .LVU61
 282 0002 D0F80003 		ldr	r0, [r0, #768]
 283              	.LVL18:
 284              		.loc 1 147 3 is_stmt 0 view .LVU62
 285 0006 FFF7FEFF 		bl	USBH_LL_Connect
 286              	.LVL19:
 148:USB_HOST/Target/usbh_conf.c **** }
 287              		.loc 1 148 1 view .LVU63
 288 000a 08BD     		pop	{r3, pc}
 289              		.cfi_endproc
 290              	.LFE136:
 292              		.section	.text.HAL_HCD_Disconnect_Callback,"ax",%progbits
 293              		.align	1
 294              		.global	HAL_HCD_Disconnect_Callback
 295              		.syntax unified
 296              		.thumb
 297              		.thumb_func
 298              		.fpu fpv4-sp-d16
 300              	HAL_HCD_Disconnect_Callback:
 301              	.LVL20:
 302              	.LFB137:
 149:USB_HOST/Target/usbh_conf.c **** 
 150:USB_HOST/Target/usbh_conf.c **** /**
 151:USB_HOST/Target/usbh_conf.c ****   * @brief  SOF callback.
 152:USB_HOST/Target/usbh_conf.c ****   * @param  hhcd: HCD handle
 153:USB_HOST/Target/usbh_conf.c ****   * @retval None
 154:USB_HOST/Target/usbh_conf.c ****   */
 155:USB_HOST/Target/usbh_conf.c **** void HAL_HCD_Disconnect_Callback(HCD_HandleTypeDef *hhcd)
 156:USB_HOST/Target/usbh_conf.c **** {
 303              		.loc 1 156 1 is_stmt 1 view -0
 304              		.cfi_startproc
 305              		@ args = 0, pretend = 0, frame = 0
 306              		@ frame_needed = 0, uses_anonymous_args = 0
 307              		.loc 1 156 1 is_stmt 0 view .LVU65
 308 0000 08B5     		push	{r3, lr}
 309              	.LCFI7:
 310              		.cfi_def_cfa_offset 8
 311              		.cfi_offset 3, -8
 312              		.cfi_offset 14, -4
 157:USB_HOST/Target/usbh_conf.c ****   USBH_LL_Disconnect(hhcd->pData);
 313              		.loc 1 157 3 is_stmt 1 view .LVU66
 314 0002 D0F80003 		ldr	r0, [r0, #768]
 315              	.LVL21:
 316              		.loc 1 157 3 is_stmt 0 view .LVU67
 317 0006 FFF7FEFF 		bl	USBH_LL_Disconnect
 318              	.LVL22:
 158:USB_HOST/Target/usbh_conf.c **** }
 319              		.loc 1 158 1 view .LVU68
 320 000a 08BD     		pop	{r3, pc}
 321              		.cfi_endproc
 322              	.LFE137:
 324              		.section	.text.HAL_HCD_HC_NotifyURBChange_Callback,"ax",%progbits
 325              		.align	1
 326              		.global	HAL_HCD_HC_NotifyURBChange_Callback
 327              		.syntax unified
ARM GAS  /var/folders/sd/sw6_rvdd1xd6sxxq8gkv_lph0000gn/T//ccRPaCU6.s 			page 10


 328              		.thumb
 329              		.thumb_func
 330              		.fpu fpv4-sp-d16
 332              	HAL_HCD_HC_NotifyURBChange_Callback:
 333              	.LVL23:
 334              	.LFB138:
 159:USB_HOST/Target/usbh_conf.c **** 
 160:USB_HOST/Target/usbh_conf.c **** /**
 161:USB_HOST/Target/usbh_conf.c ****   * @brief  Notify URB state change callback.
 162:USB_HOST/Target/usbh_conf.c ****   * @param  hhcd: HCD handle
 163:USB_HOST/Target/usbh_conf.c ****   * @param  chnum: channel number
 164:USB_HOST/Target/usbh_conf.c ****   * @param  urb_state: state
 165:USB_HOST/Target/usbh_conf.c ****   * @retval None
 166:USB_HOST/Target/usbh_conf.c ****   */
 167:USB_HOST/Target/usbh_conf.c **** void HAL_HCD_HC_NotifyURBChange_Callback(HCD_HandleTypeDef *hhcd, uint8_t chnum, HCD_URBStateTypeDe
 168:USB_HOST/Target/usbh_conf.c **** {
 335              		.loc 1 168 1 is_stmt 1 view -0
 336              		.cfi_startproc
 337              		@ args = 0, pretend = 0, frame = 0
 338              		@ frame_needed = 0, uses_anonymous_args = 0
 339              		@ link register save eliminated.
 169:USB_HOST/Target/usbh_conf.c ****   /* To be used with OS to sync URB state with the global state machine */
 170:USB_HOST/Target/usbh_conf.c **** #if (USBH_USE_OS == 1)
 171:USB_HOST/Target/usbh_conf.c ****   USBH_LL_NotifyURBChange(hhcd->pData);
 172:USB_HOST/Target/usbh_conf.c **** #endif
 173:USB_HOST/Target/usbh_conf.c **** }
 340              		.loc 1 173 1 view .LVU70
 341 0000 7047     		bx	lr
 342              		.cfi_endproc
 343              	.LFE138:
 345              		.section	.text.HAL_HCD_PortEnabled_Callback,"ax",%progbits
 346              		.align	1
 347              		.global	HAL_HCD_PortEnabled_Callback
 348              		.syntax unified
 349              		.thumb
 350              		.thumb_func
 351              		.fpu fpv4-sp-d16
 353              	HAL_HCD_PortEnabled_Callback:
 354              	.LVL24:
 355              	.LFB139:
 174:USB_HOST/Target/usbh_conf.c **** /**
 175:USB_HOST/Target/usbh_conf.c **** * @brief  Port Port Enabled callback.
 176:USB_HOST/Target/usbh_conf.c ****   * @param  hhcd: HCD handle
 177:USB_HOST/Target/usbh_conf.c ****   * @retval None
 178:USB_HOST/Target/usbh_conf.c ****   */
 179:USB_HOST/Target/usbh_conf.c **** void HAL_HCD_PortEnabled_Callback(HCD_HandleTypeDef *hhcd)
 180:USB_HOST/Target/usbh_conf.c **** {
 356              		.loc 1 180 1 view -0
 357              		.cfi_startproc
 358              		@ args = 0, pretend = 0, frame = 0
 359              		@ frame_needed = 0, uses_anonymous_args = 0
 360              		.loc 1 180 1 is_stmt 0 view .LVU72
 361 0000 08B5     		push	{r3, lr}
 362              	.LCFI8:
 363              		.cfi_def_cfa_offset 8
 364              		.cfi_offset 3, -8
 365              		.cfi_offset 14, -4
ARM GAS  /var/folders/sd/sw6_rvdd1xd6sxxq8gkv_lph0000gn/T//ccRPaCU6.s 			page 11


 181:USB_HOST/Target/usbh_conf.c ****   USBH_LL_PortEnabled(hhcd->pData);
 366              		.loc 1 181 3 is_stmt 1 view .LVU73
 367 0002 D0F80003 		ldr	r0, [r0, #768]
 368              	.LVL25:
 369              		.loc 1 181 3 is_stmt 0 view .LVU74
 370 0006 FFF7FEFF 		bl	USBH_LL_PortEnabled
 371              	.LVL26:
 182:USB_HOST/Target/usbh_conf.c **** }
 372              		.loc 1 182 1 view .LVU75
 373 000a 08BD     		pop	{r3, pc}
 374              		.cfi_endproc
 375              	.LFE139:
 377              		.section	.text.HAL_HCD_PortDisabled_Callback,"ax",%progbits
 378              		.align	1
 379              		.global	HAL_HCD_PortDisabled_Callback
 380              		.syntax unified
 381              		.thumb
 382              		.thumb_func
 383              		.fpu fpv4-sp-d16
 385              	HAL_HCD_PortDisabled_Callback:
 386              	.LVL27:
 387              	.LFB140:
 183:USB_HOST/Target/usbh_conf.c **** 
 184:USB_HOST/Target/usbh_conf.c **** /**
 185:USB_HOST/Target/usbh_conf.c ****   * @brief  Port Port Disabled callback.
 186:USB_HOST/Target/usbh_conf.c ****   * @param  hhcd: HCD handle
 187:USB_HOST/Target/usbh_conf.c ****   * @retval None
 188:USB_HOST/Target/usbh_conf.c ****   */
 189:USB_HOST/Target/usbh_conf.c **** void HAL_HCD_PortDisabled_Callback(HCD_HandleTypeDef *hhcd)
 190:USB_HOST/Target/usbh_conf.c **** {
 388              		.loc 1 190 1 is_stmt 1 view -0
 389              		.cfi_startproc
 390              		@ args = 0, pretend = 0, frame = 0
 391              		@ frame_needed = 0, uses_anonymous_args = 0
 392              		.loc 1 190 1 is_stmt 0 view .LVU77
 393 0000 08B5     		push	{r3, lr}
 394              	.LCFI9:
 395              		.cfi_def_cfa_offset 8
 396              		.cfi_offset 3, -8
 397              		.cfi_offset 14, -4
 191:USB_HOST/Target/usbh_conf.c ****   USBH_LL_PortDisabled(hhcd->pData);
 398              		.loc 1 191 3 is_stmt 1 view .LVU78
 399 0002 D0F80003 		ldr	r0, [r0, #768]
 400              	.LVL28:
 401              		.loc 1 191 3 is_stmt 0 view .LVU79
 402 0006 FFF7FEFF 		bl	USBH_LL_PortDisabled
 403              	.LVL29:
 192:USB_HOST/Target/usbh_conf.c **** }
 404              		.loc 1 192 1 view .LVU80
 405 000a 08BD     		pop	{r3, pc}
 406              		.cfi_endproc
 407              	.LFE140:
 409              		.section	.text.USBH_LL_Init,"ax",%progbits
 410              		.align	1
 411              		.global	USBH_LL_Init
 412              		.syntax unified
 413              		.thumb
ARM GAS  /var/folders/sd/sw6_rvdd1xd6sxxq8gkv_lph0000gn/T//ccRPaCU6.s 			page 12


 414              		.thumb_func
 415              		.fpu fpv4-sp-d16
 417              	USBH_LL_Init:
 418              	.LVL30:
 419              	.LFB141:
 193:USB_HOST/Target/usbh_conf.c **** 
 194:USB_HOST/Target/usbh_conf.c **** /*******************************************************************************
 195:USB_HOST/Target/usbh_conf.c ****                        LL Driver Interface (USB Host Library --> HCD)
 196:USB_HOST/Target/usbh_conf.c **** *******************************************************************************/
 197:USB_HOST/Target/usbh_conf.c **** 
 198:USB_HOST/Target/usbh_conf.c **** /**
 199:USB_HOST/Target/usbh_conf.c ****   * @brief  Initialize the low level portion of the host driver.
 200:USB_HOST/Target/usbh_conf.c ****   * @param  phost: Host handle
 201:USB_HOST/Target/usbh_conf.c ****   * @retval USBH status
 202:USB_HOST/Target/usbh_conf.c ****   */
 203:USB_HOST/Target/usbh_conf.c **** USBH_StatusTypeDef USBH_LL_Init(USBH_HandleTypeDef *phost)
 204:USB_HOST/Target/usbh_conf.c **** {
 420              		.loc 1 204 1 is_stmt 1 view -0
 421              		.cfi_startproc
 422              		@ args = 0, pretend = 0, frame = 0
 423              		@ frame_needed = 0, uses_anonymous_args = 0
 205:USB_HOST/Target/usbh_conf.c ****   /* Init USB_IP */
 206:USB_HOST/Target/usbh_conf.c ****   if (phost->id == HOST_FS) {
 424              		.loc 1 206 3 view .LVU82
 425              		.loc 1 206 12 is_stmt 0 view .LVU83
 426 0000 90F8CC33 		ldrb	r3, [r0, #972]	@ zero_extendqisi2
 427              		.loc 1 206 6 view .LVU84
 428 0004 012B     		cmp	r3, #1
 429 0006 01D0     		beq	.L31
 207:USB_HOST/Target/usbh_conf.c ****   /* Link the driver to the stack. */
 208:USB_HOST/Target/usbh_conf.c ****   hhcd_USB_OTG_FS.pData = phost;
 209:USB_HOST/Target/usbh_conf.c ****   phost->pData = &hhcd_USB_OTG_FS;
 210:USB_HOST/Target/usbh_conf.c **** 
 211:USB_HOST/Target/usbh_conf.c ****   hhcd_USB_OTG_FS.Instance = USB_OTG_FS;
 212:USB_HOST/Target/usbh_conf.c ****   hhcd_USB_OTG_FS.Init.Host_channels = 8;
 213:USB_HOST/Target/usbh_conf.c ****   hhcd_USB_OTG_FS.Init.speed = HCD_SPEED_FULL;
 214:USB_HOST/Target/usbh_conf.c ****   hhcd_USB_OTG_FS.Init.dma_enable = DISABLE;
 215:USB_HOST/Target/usbh_conf.c ****   hhcd_USB_OTG_FS.Init.phy_itface = HCD_PHY_EMBEDDED;
 216:USB_HOST/Target/usbh_conf.c ****   hhcd_USB_OTG_FS.Init.Sof_enable = DISABLE;
 217:USB_HOST/Target/usbh_conf.c ****   if (HAL_HCD_Init(&hhcd_USB_OTG_FS) != HAL_OK)
 218:USB_HOST/Target/usbh_conf.c ****   {
 219:USB_HOST/Target/usbh_conf.c ****     Error_Handler( );
 220:USB_HOST/Target/usbh_conf.c ****   }
 221:USB_HOST/Target/usbh_conf.c **** 
 222:USB_HOST/Target/usbh_conf.c ****   USBH_LL_SetTimer(phost, HAL_HCD_GetCurrentFrame(&hhcd_USB_OTG_FS));
 223:USB_HOST/Target/usbh_conf.c ****   }
 224:USB_HOST/Target/usbh_conf.c ****   return USBH_OK;
 430              		.loc 1 224 3 is_stmt 1 view .LVU85
 225:USB_HOST/Target/usbh_conf.c **** }
 431              		.loc 1 225 1 is_stmt 0 view .LVU86
 432 0008 0020     		movs	r0, #0
 433              	.LVL31:
 434              		.loc 1 225 1 view .LVU87
 435 000a 7047     		bx	lr
 436              	.LVL32:
 437              	.L31:
 204:USB_HOST/Target/usbh_conf.c ****   /* Init USB_IP */
ARM GAS  /var/folders/sd/sw6_rvdd1xd6sxxq8gkv_lph0000gn/T//ccRPaCU6.s 			page 13


 438              		.loc 1 204 1 view .LVU88
 439 000c 10B5     		push	{r4, lr}
 440              	.LCFI10:
 441              		.cfi_def_cfa_offset 8
 442              		.cfi_offset 4, -8
 443              		.cfi_offset 14, -4
 444 000e 0446     		mov	r4, r0
 208:USB_HOST/Target/usbh_conf.c ****   phost->pData = &hhcd_USB_OTG_FS;
 445              		.loc 1 208 3 is_stmt 1 view .LVU89
 208:USB_HOST/Target/usbh_conf.c ****   phost->pData = &hhcd_USB_OTG_FS;
 446              		.loc 1 208 25 is_stmt 0 view .LVU90
 447 0010 0F48     		ldr	r0, .L33
 448              	.LVL33:
 208:USB_HOST/Target/usbh_conf.c ****   phost->pData = &hhcd_USB_OTG_FS;
 449              		.loc 1 208 25 view .LVU91
 450 0012 C0F80043 		str	r4, [r0, #768]
 209:USB_HOST/Target/usbh_conf.c **** 
 451              		.loc 1 209 3 is_stmt 1 view .LVU92
 209:USB_HOST/Target/usbh_conf.c **** 
 452              		.loc 1 209 16 is_stmt 0 view .LVU93
 453 0016 C4F8D003 		str	r0, [r4, #976]
 211:USB_HOST/Target/usbh_conf.c ****   hhcd_USB_OTG_FS.Init.Host_channels = 8;
 454              		.loc 1 211 3 is_stmt 1 view .LVU94
 211:USB_HOST/Target/usbh_conf.c ****   hhcd_USB_OTG_FS.Init.Host_channels = 8;
 455              		.loc 1 211 28 is_stmt 0 view .LVU95
 456 001a 4FF0A043 		mov	r3, #1342177280
 457 001e 0360     		str	r3, [r0]
 212:USB_HOST/Target/usbh_conf.c ****   hhcd_USB_OTG_FS.Init.speed = HCD_SPEED_FULL;
 458              		.loc 1 212 3 is_stmt 1 view .LVU96
 212:USB_HOST/Target/usbh_conf.c ****   hhcd_USB_OTG_FS.Init.speed = HCD_SPEED_FULL;
 459              		.loc 1 212 38 is_stmt 0 view .LVU97
 460 0020 0823     		movs	r3, #8
 461 0022 8360     		str	r3, [r0, #8]
 213:USB_HOST/Target/usbh_conf.c ****   hhcd_USB_OTG_FS.Init.dma_enable = DISABLE;
 462              		.loc 1 213 3 is_stmt 1 view .LVU98
 213:USB_HOST/Target/usbh_conf.c ****   hhcd_USB_OTG_FS.Init.dma_enable = DISABLE;
 463              		.loc 1 213 30 is_stmt 0 view .LVU99
 464 0024 0123     		movs	r3, #1
 465 0026 C360     		str	r3, [r0, #12]
 214:USB_HOST/Target/usbh_conf.c ****   hhcd_USB_OTG_FS.Init.phy_itface = HCD_PHY_EMBEDDED;
 466              		.loc 1 214 3 is_stmt 1 view .LVU100
 214:USB_HOST/Target/usbh_conf.c ****   hhcd_USB_OTG_FS.Init.phy_itface = HCD_PHY_EMBEDDED;
 467              		.loc 1 214 35 is_stmt 0 view .LVU101
 468 0028 0023     		movs	r3, #0
 469 002a 0361     		str	r3, [r0, #16]
 215:USB_HOST/Target/usbh_conf.c ****   hhcd_USB_OTG_FS.Init.Sof_enable = DISABLE;
 470              		.loc 1 215 3 is_stmt 1 view .LVU102
 215:USB_HOST/Target/usbh_conf.c ****   hhcd_USB_OTG_FS.Init.Sof_enable = DISABLE;
 471              		.loc 1 215 35 is_stmt 0 view .LVU103
 472 002c 0222     		movs	r2, #2
 473 002e 8261     		str	r2, [r0, #24]
 216:USB_HOST/Target/usbh_conf.c ****   if (HAL_HCD_Init(&hhcd_USB_OTG_FS) != HAL_OK)
 474              		.loc 1 216 3 is_stmt 1 view .LVU104
 216:USB_HOST/Target/usbh_conf.c ****   if (HAL_HCD_Init(&hhcd_USB_OTG_FS) != HAL_OK)
 475              		.loc 1 216 35 is_stmt 0 view .LVU105
 476 0030 C361     		str	r3, [r0, #28]
 217:USB_HOST/Target/usbh_conf.c ****   {
ARM GAS  /var/folders/sd/sw6_rvdd1xd6sxxq8gkv_lph0000gn/T//ccRPaCU6.s 			page 14


 477              		.loc 1 217 3 is_stmt 1 view .LVU106
 217:USB_HOST/Target/usbh_conf.c ****   {
 478              		.loc 1 217 7 is_stmt 0 view .LVU107
 479 0032 FFF7FEFF 		bl	HAL_HCD_Init
 480              	.LVL34:
 217:USB_HOST/Target/usbh_conf.c ****   {
 481              		.loc 1 217 6 view .LVU108
 482 0036 40B9     		cbnz	r0, .L32
 483              	.L26:
 222:USB_HOST/Target/usbh_conf.c ****   }
 484              		.loc 1 222 3 is_stmt 1 view .LVU109
 485 0038 0548     		ldr	r0, .L33
 486 003a FFF7FEFF 		bl	HAL_HCD_GetCurrentFrame
 487              	.LVL35:
 488 003e 0146     		mov	r1, r0
 489 0040 2046     		mov	r0, r4
 490 0042 FFF7FEFF 		bl	USBH_LL_SetTimer
 491              	.LVL36:
 224:USB_HOST/Target/usbh_conf.c **** }
 492              		.loc 1 224 3 view .LVU110
 493              		.loc 1 225 1 is_stmt 0 view .LVU111
 494 0046 0020     		movs	r0, #0
 495 0048 10BD     		pop	{r4, pc}
 496              	.LVL37:
 497              	.L32:
 219:USB_HOST/Target/usbh_conf.c ****   }
 498              		.loc 1 219 5 is_stmt 1 view .LVU112
 499 004a FFF7FEFF 		bl	Error_Handler
 500              	.LVL38:
 501 004e F3E7     		b	.L26
 502              	.L34:
 503              		.align	2
 504              	.L33:
 505 0050 00000000 		.word	.LANCHOR0
 506              		.cfi_endproc
 507              	.LFE141:
 509              		.section	.text.USBH_LL_GetSpeed,"ax",%progbits
 510              		.align	1
 511              		.global	USBH_LL_GetSpeed
 512              		.syntax unified
 513              		.thumb
 514              		.thumb_func
 515              		.fpu fpv4-sp-d16
 517              	USBH_LL_GetSpeed:
 518              	.LVL39:
 519              	.LFB145:
 226:USB_HOST/Target/usbh_conf.c **** 
 227:USB_HOST/Target/usbh_conf.c **** /**
 228:USB_HOST/Target/usbh_conf.c ****   * @brief  De-Initialize the low level portion of the host driver.
 229:USB_HOST/Target/usbh_conf.c ****   * @param  phost: Host handle
 230:USB_HOST/Target/usbh_conf.c ****   * @retval USBH status
 231:USB_HOST/Target/usbh_conf.c ****   */
 232:USB_HOST/Target/usbh_conf.c **** USBH_StatusTypeDef USBH_LL_DeInit(USBH_HandleTypeDef *phost)
 233:USB_HOST/Target/usbh_conf.c **** {
 234:USB_HOST/Target/usbh_conf.c ****   HAL_StatusTypeDef hal_status = HAL_OK;
 235:USB_HOST/Target/usbh_conf.c ****   USBH_StatusTypeDef usb_status = USBH_OK;
 236:USB_HOST/Target/usbh_conf.c **** 
ARM GAS  /var/folders/sd/sw6_rvdd1xd6sxxq8gkv_lph0000gn/T//ccRPaCU6.s 			page 15


 237:USB_HOST/Target/usbh_conf.c ****   hal_status = HAL_HCD_DeInit(phost->pData);
 238:USB_HOST/Target/usbh_conf.c **** 
 239:USB_HOST/Target/usbh_conf.c ****   usb_status = USBH_Get_USB_Status(hal_status);
 240:USB_HOST/Target/usbh_conf.c **** 
 241:USB_HOST/Target/usbh_conf.c ****   return usb_status;
 242:USB_HOST/Target/usbh_conf.c **** }
 243:USB_HOST/Target/usbh_conf.c **** 
 244:USB_HOST/Target/usbh_conf.c **** /**
 245:USB_HOST/Target/usbh_conf.c ****   * @brief  Start the low level portion of the host driver.
 246:USB_HOST/Target/usbh_conf.c ****   * @param  phost: Host handle
 247:USB_HOST/Target/usbh_conf.c ****   * @retval USBH status
 248:USB_HOST/Target/usbh_conf.c ****   */
 249:USB_HOST/Target/usbh_conf.c **** USBH_StatusTypeDef USBH_LL_Start(USBH_HandleTypeDef *phost)
 250:USB_HOST/Target/usbh_conf.c **** {
 251:USB_HOST/Target/usbh_conf.c ****   HAL_StatusTypeDef hal_status = HAL_OK;
 252:USB_HOST/Target/usbh_conf.c ****   USBH_StatusTypeDef usb_status = USBH_OK;
 253:USB_HOST/Target/usbh_conf.c **** 
 254:USB_HOST/Target/usbh_conf.c ****   hal_status = HAL_HCD_Start(phost->pData);
 255:USB_HOST/Target/usbh_conf.c **** 
 256:USB_HOST/Target/usbh_conf.c ****   usb_status = USBH_Get_USB_Status(hal_status);
 257:USB_HOST/Target/usbh_conf.c **** 
 258:USB_HOST/Target/usbh_conf.c ****   return usb_status;
 259:USB_HOST/Target/usbh_conf.c **** }
 260:USB_HOST/Target/usbh_conf.c **** 
 261:USB_HOST/Target/usbh_conf.c **** /**
 262:USB_HOST/Target/usbh_conf.c ****   * @brief  Stop the low level portion of the host driver.
 263:USB_HOST/Target/usbh_conf.c ****   * @param  phost: Host handle
 264:USB_HOST/Target/usbh_conf.c ****   * @retval USBH status
 265:USB_HOST/Target/usbh_conf.c ****   */
 266:USB_HOST/Target/usbh_conf.c **** USBH_StatusTypeDef USBH_LL_Stop(USBH_HandleTypeDef *phost)
 267:USB_HOST/Target/usbh_conf.c **** {
 268:USB_HOST/Target/usbh_conf.c ****   HAL_StatusTypeDef hal_status = HAL_OK;
 269:USB_HOST/Target/usbh_conf.c ****   USBH_StatusTypeDef usb_status = USBH_OK;
 270:USB_HOST/Target/usbh_conf.c **** 
 271:USB_HOST/Target/usbh_conf.c ****   hal_status = HAL_HCD_Stop(phost->pData);
 272:USB_HOST/Target/usbh_conf.c **** 
 273:USB_HOST/Target/usbh_conf.c ****   usb_status = USBH_Get_USB_Status(hal_status);
 274:USB_HOST/Target/usbh_conf.c **** 
 275:USB_HOST/Target/usbh_conf.c ****   return usb_status;
 276:USB_HOST/Target/usbh_conf.c **** }
 277:USB_HOST/Target/usbh_conf.c **** 
 278:USB_HOST/Target/usbh_conf.c **** /**
 279:USB_HOST/Target/usbh_conf.c ****   * @brief  Return the USB host speed from the low level driver.
 280:USB_HOST/Target/usbh_conf.c ****   * @param  phost: Host handle
 281:USB_HOST/Target/usbh_conf.c ****   * @retval USBH speeds
 282:USB_HOST/Target/usbh_conf.c ****   */
 283:USB_HOST/Target/usbh_conf.c **** USBH_SpeedTypeDef USBH_LL_GetSpeed(USBH_HandleTypeDef *phost)
 284:USB_HOST/Target/usbh_conf.c **** {
 520              		.loc 1 284 1 view -0
 521              		.cfi_startproc
 522              		@ args = 0, pretend = 0, frame = 0
 523              		@ frame_needed = 0, uses_anonymous_args = 0
 524              		.loc 1 284 1 is_stmt 0 view .LVU114
 525 0000 08B5     		push	{r3, lr}
 526              	.LCFI11:
 527              		.cfi_def_cfa_offset 8
 528              		.cfi_offset 3, -8
ARM GAS  /var/folders/sd/sw6_rvdd1xd6sxxq8gkv_lph0000gn/T//ccRPaCU6.s 			page 16


 529              		.cfi_offset 14, -4
 285:USB_HOST/Target/usbh_conf.c ****   USBH_SpeedTypeDef speed = USBH_SPEED_FULL;
 530              		.loc 1 285 3 is_stmt 1 view .LVU115
 531              	.LVL40:
 286:USB_HOST/Target/usbh_conf.c **** 
 287:USB_HOST/Target/usbh_conf.c ****   switch (HAL_HCD_GetCurrentSpeed(phost->pData))
 532              		.loc 1 287 3 view .LVU116
 533              		.loc 1 287 11 is_stmt 0 view .LVU117
 534 0002 D0F8D003 		ldr	r0, [r0, #976]
 535              	.LVL41:
 536              		.loc 1 287 11 view .LVU118
 537 0006 FFF7FEFF 		bl	HAL_HCD_GetCurrentSpeed
 538              	.LVL42:
 539              		.loc 1 287 3 view .LVU119
 540 000a 0128     		cmp	r0, #1
 541 000c 04D0     		beq	.L37
 542 000e 0228     		cmp	r0, #2
 543 0010 04D0     		beq	.L38
 544 0012 00B1     		cbz	r0, .L36
 288:USB_HOST/Target/usbh_conf.c ****   {
 289:USB_HOST/Target/usbh_conf.c ****   case 0 :
 290:USB_HOST/Target/usbh_conf.c ****     speed = USBH_SPEED_HIGH;
 291:USB_HOST/Target/usbh_conf.c ****     break;
 292:USB_HOST/Target/usbh_conf.c **** 
 293:USB_HOST/Target/usbh_conf.c ****   case 1 :
 294:USB_HOST/Target/usbh_conf.c ****     speed = USBH_SPEED_FULL;
 295:USB_HOST/Target/usbh_conf.c ****     break;
 296:USB_HOST/Target/usbh_conf.c **** 
 297:USB_HOST/Target/usbh_conf.c ****   case 2 :
 298:USB_HOST/Target/usbh_conf.c ****     speed = USBH_SPEED_LOW;
 299:USB_HOST/Target/usbh_conf.c ****     break;
 300:USB_HOST/Target/usbh_conf.c **** 
 301:USB_HOST/Target/usbh_conf.c ****   default:
 302:USB_HOST/Target/usbh_conf.c ****    speed = USBH_SPEED_FULL;
 545              		.loc 1 302 10 view .LVU120
 546 0014 0120     		movs	r0, #1
 547              	.L36:
 548              	.LVL43:
 303:USB_HOST/Target/usbh_conf.c ****     break;
 304:USB_HOST/Target/usbh_conf.c ****   }
 305:USB_HOST/Target/usbh_conf.c ****   return  speed;
 549              		.loc 1 305 3 is_stmt 1 view .LVU121
 306:USB_HOST/Target/usbh_conf.c **** }
 550              		.loc 1 306 1 is_stmt 0 view .LVU122
 551 0016 08BD     		pop	{r3, pc}
 552              	.LVL44:
 553              	.L37:
 294:USB_HOST/Target/usbh_conf.c ****     break;
 554              		.loc 1 294 11 view .LVU123
 555 0018 0120     		movs	r0, #1
 556 001a FCE7     		b	.L36
 557              	.L38:
 298:USB_HOST/Target/usbh_conf.c ****     break;
 558              		.loc 1 298 11 view .LVU124
 559 001c 0220     		movs	r0, #2
 560 001e FAE7     		b	.L36
 561              		.cfi_endproc
ARM GAS  /var/folders/sd/sw6_rvdd1xd6sxxq8gkv_lph0000gn/T//ccRPaCU6.s 			page 17


 562              	.LFE145:
 564              		.section	.text.USBH_LL_GetLastXferSize,"ax",%progbits
 565              		.align	1
 566              		.global	USBH_LL_GetLastXferSize
 567              		.syntax unified
 568              		.thumb
 569              		.thumb_func
 570              		.fpu fpv4-sp-d16
 572              	USBH_LL_GetLastXferSize:
 573              	.LVL45:
 574              	.LFB147:
 307:USB_HOST/Target/usbh_conf.c **** 
 308:USB_HOST/Target/usbh_conf.c **** /**
 309:USB_HOST/Target/usbh_conf.c ****   * @brief  Reset the Host port of the low level driver.
 310:USB_HOST/Target/usbh_conf.c ****   * @param  phost: Host handle
 311:USB_HOST/Target/usbh_conf.c ****   * @retval USBH status
 312:USB_HOST/Target/usbh_conf.c ****   */
 313:USB_HOST/Target/usbh_conf.c **** USBH_StatusTypeDef USBH_LL_ResetPort(USBH_HandleTypeDef *phost)
 314:USB_HOST/Target/usbh_conf.c **** {
 315:USB_HOST/Target/usbh_conf.c ****   HAL_StatusTypeDef hal_status = HAL_OK;
 316:USB_HOST/Target/usbh_conf.c ****   USBH_StatusTypeDef usb_status = USBH_OK;
 317:USB_HOST/Target/usbh_conf.c **** 
 318:USB_HOST/Target/usbh_conf.c ****   hal_status = HAL_HCD_ResetPort(phost->pData);
 319:USB_HOST/Target/usbh_conf.c **** 
 320:USB_HOST/Target/usbh_conf.c ****   usb_status = USBH_Get_USB_Status(hal_status);
 321:USB_HOST/Target/usbh_conf.c **** 
 322:USB_HOST/Target/usbh_conf.c ****   return usb_status;
 323:USB_HOST/Target/usbh_conf.c **** }
 324:USB_HOST/Target/usbh_conf.c **** 
 325:USB_HOST/Target/usbh_conf.c **** /**
 326:USB_HOST/Target/usbh_conf.c ****   * @brief  Return the last transfered packet size.
 327:USB_HOST/Target/usbh_conf.c ****   * @param  phost: Host handle
 328:USB_HOST/Target/usbh_conf.c ****   * @param  pipe: Pipe index
 329:USB_HOST/Target/usbh_conf.c ****   * @retval Packet size
 330:USB_HOST/Target/usbh_conf.c ****   */
 331:USB_HOST/Target/usbh_conf.c **** uint32_t USBH_LL_GetLastXferSize(USBH_HandleTypeDef *phost, uint8_t pipe)
 332:USB_HOST/Target/usbh_conf.c **** {
 575              		.loc 1 332 1 is_stmt 1 view -0
 576              		.cfi_startproc
 577              		@ args = 0, pretend = 0, frame = 0
 578              		@ frame_needed = 0, uses_anonymous_args = 0
 579              		.loc 1 332 1 is_stmt 0 view .LVU126
 580 0000 08B5     		push	{r3, lr}
 581              	.LCFI12:
 582              		.cfi_def_cfa_offset 8
 583              		.cfi_offset 3, -8
 584              		.cfi_offset 14, -4
 333:USB_HOST/Target/usbh_conf.c ****   return HAL_HCD_HC_GetXferCount(phost->pData, pipe);
 585              		.loc 1 333 3 is_stmt 1 view .LVU127
 586              		.loc 1 333 10 is_stmt 0 view .LVU128
 587 0002 D0F8D003 		ldr	r0, [r0, #976]
 588              	.LVL46:
 589              		.loc 1 333 10 view .LVU129
 590 0006 FFF7FEFF 		bl	HAL_HCD_HC_GetXferCount
 591              	.LVL47:
 334:USB_HOST/Target/usbh_conf.c **** }
 592              		.loc 1 334 1 view .LVU130
ARM GAS  /var/folders/sd/sw6_rvdd1xd6sxxq8gkv_lph0000gn/T//ccRPaCU6.s 			page 18


 593 000a 08BD     		pop	{r3, pc}
 594              		.cfi_endproc
 595              	.LFE147:
 597              		.section	.text.USBH_LL_GetURBState,"ax",%progbits
 598              		.align	1
 599              		.global	USBH_LL_GetURBState
 600              		.syntax unified
 601              		.thumb
 602              		.thumb_func
 603              		.fpu fpv4-sp-d16
 605              	USBH_LL_GetURBState:
 606              	.LVL48:
 607              	.LFB151:
 335:USB_HOST/Target/usbh_conf.c **** 
 336:USB_HOST/Target/usbh_conf.c **** /**
 337:USB_HOST/Target/usbh_conf.c ****   * @brief  Open a pipe of the low level driver.
 338:USB_HOST/Target/usbh_conf.c ****   * @param  phost: Host handle
 339:USB_HOST/Target/usbh_conf.c ****   * @param  pipe_num: Pipe index
 340:USB_HOST/Target/usbh_conf.c ****   * @param  epnum: Endpoint number
 341:USB_HOST/Target/usbh_conf.c ****   * @param  dev_address: Device USB address
 342:USB_HOST/Target/usbh_conf.c ****   * @param  speed: Device Speed
 343:USB_HOST/Target/usbh_conf.c ****   * @param  ep_type: Endpoint type
 344:USB_HOST/Target/usbh_conf.c ****   * @param  mps: Endpoint max packet size
 345:USB_HOST/Target/usbh_conf.c ****   * @retval USBH status
 346:USB_HOST/Target/usbh_conf.c ****   */
 347:USB_HOST/Target/usbh_conf.c **** USBH_StatusTypeDef USBH_LL_OpenPipe(USBH_HandleTypeDef *phost, uint8_t pipe_num, uint8_t epnum,
 348:USB_HOST/Target/usbh_conf.c ****                                     uint8_t dev_address, uint8_t speed, uint8_t ep_type, uint16_t m
 349:USB_HOST/Target/usbh_conf.c **** {
 350:USB_HOST/Target/usbh_conf.c ****   HAL_StatusTypeDef hal_status = HAL_OK;
 351:USB_HOST/Target/usbh_conf.c ****   USBH_StatusTypeDef usb_status = USBH_OK;
 352:USB_HOST/Target/usbh_conf.c **** 
 353:USB_HOST/Target/usbh_conf.c ****   hal_status = HAL_HCD_HC_Init(phost->pData, pipe_num, epnum,
 354:USB_HOST/Target/usbh_conf.c ****                                dev_address, speed, ep_type, mps);
 355:USB_HOST/Target/usbh_conf.c **** 
 356:USB_HOST/Target/usbh_conf.c ****   usb_status = USBH_Get_USB_Status(hal_status);
 357:USB_HOST/Target/usbh_conf.c **** 
 358:USB_HOST/Target/usbh_conf.c ****   return usb_status;
 359:USB_HOST/Target/usbh_conf.c **** }
 360:USB_HOST/Target/usbh_conf.c **** 
 361:USB_HOST/Target/usbh_conf.c **** /**
 362:USB_HOST/Target/usbh_conf.c ****   * @brief  Close a pipe of the low level driver.
 363:USB_HOST/Target/usbh_conf.c ****   * @param  phost: Host handle
 364:USB_HOST/Target/usbh_conf.c ****   * @param  pipe: Pipe index
 365:USB_HOST/Target/usbh_conf.c ****   * @retval USBH status
 366:USB_HOST/Target/usbh_conf.c ****   */
 367:USB_HOST/Target/usbh_conf.c **** USBH_StatusTypeDef USBH_LL_ClosePipe(USBH_HandleTypeDef *phost, uint8_t pipe)
 368:USB_HOST/Target/usbh_conf.c **** {
 369:USB_HOST/Target/usbh_conf.c ****   HAL_StatusTypeDef hal_status = HAL_OK;
 370:USB_HOST/Target/usbh_conf.c ****   USBH_StatusTypeDef usb_status = USBH_OK;
 371:USB_HOST/Target/usbh_conf.c **** 
 372:USB_HOST/Target/usbh_conf.c ****   hal_status = HAL_HCD_HC_Halt(phost->pData, pipe);
 373:USB_HOST/Target/usbh_conf.c **** 
 374:USB_HOST/Target/usbh_conf.c ****   usb_status = USBH_Get_USB_Status(hal_status);
 375:USB_HOST/Target/usbh_conf.c **** 
 376:USB_HOST/Target/usbh_conf.c ****   return usb_status;
 377:USB_HOST/Target/usbh_conf.c **** }
 378:USB_HOST/Target/usbh_conf.c **** 
ARM GAS  /var/folders/sd/sw6_rvdd1xd6sxxq8gkv_lph0000gn/T//ccRPaCU6.s 			page 19


 379:USB_HOST/Target/usbh_conf.c **** /**
 380:USB_HOST/Target/usbh_conf.c ****   * @brief  Submit a new URB to the low level driver.
 381:USB_HOST/Target/usbh_conf.c ****   * @param  phost: Host handle
 382:USB_HOST/Target/usbh_conf.c ****   * @param  pipe: Pipe index
 383:USB_HOST/Target/usbh_conf.c ****   *         This parameter can be a value from 1 to 15
 384:USB_HOST/Target/usbh_conf.c ****   * @param  direction : Channel number
 385:USB_HOST/Target/usbh_conf.c ****   *          This parameter can be one of the these values:
 386:USB_HOST/Target/usbh_conf.c ****   *           0 : Output
 387:USB_HOST/Target/usbh_conf.c ****   *           1 : Input
 388:USB_HOST/Target/usbh_conf.c ****   * @param  ep_type : Endpoint Type
 389:USB_HOST/Target/usbh_conf.c ****   *          This parameter can be one of the these values:
 390:USB_HOST/Target/usbh_conf.c ****   *            @arg EP_TYPE_CTRL: Control type
 391:USB_HOST/Target/usbh_conf.c ****   *            @arg EP_TYPE_ISOC: Isochrounous type
 392:USB_HOST/Target/usbh_conf.c ****   *            @arg EP_TYPE_BULK: Bulk type
 393:USB_HOST/Target/usbh_conf.c ****   *            @arg EP_TYPE_INTR: Interrupt type
 394:USB_HOST/Target/usbh_conf.c ****   * @param  token : Endpoint Type
 395:USB_HOST/Target/usbh_conf.c ****   *          This parameter can be one of the these values:
 396:USB_HOST/Target/usbh_conf.c ****   *            @arg 0: PID_SETUP
 397:USB_HOST/Target/usbh_conf.c ****   *            @arg 1: PID_DATA
 398:USB_HOST/Target/usbh_conf.c ****   * @param  pbuff : pointer to URB data
 399:USB_HOST/Target/usbh_conf.c ****   * @param  length : Length of URB data
 400:USB_HOST/Target/usbh_conf.c ****   * @param  do_ping : activate do ping protocol (for high speed only)
 401:USB_HOST/Target/usbh_conf.c ****   *          This parameter can be one of the these values:
 402:USB_HOST/Target/usbh_conf.c ****   *           0 : do ping inactive
 403:USB_HOST/Target/usbh_conf.c ****   *           1 : do ping active
 404:USB_HOST/Target/usbh_conf.c ****   * @retval Status
 405:USB_HOST/Target/usbh_conf.c ****   */
 406:USB_HOST/Target/usbh_conf.c **** USBH_StatusTypeDef USBH_LL_SubmitURB(USBH_HandleTypeDef *phost, uint8_t pipe, uint8_t direction,
 407:USB_HOST/Target/usbh_conf.c ****                                      uint8_t ep_type, uint8_t token, uint8_t *pbuff, uint16_t lengt
 408:USB_HOST/Target/usbh_conf.c ****                                      uint8_t do_ping)
 409:USB_HOST/Target/usbh_conf.c **** {
 410:USB_HOST/Target/usbh_conf.c ****   HAL_StatusTypeDef hal_status = HAL_OK;
 411:USB_HOST/Target/usbh_conf.c ****   USBH_StatusTypeDef usb_status = USBH_OK;
 412:USB_HOST/Target/usbh_conf.c **** 
 413:USB_HOST/Target/usbh_conf.c ****   hal_status = HAL_HCD_HC_SubmitRequest(phost->pData, pipe, direction ,
 414:USB_HOST/Target/usbh_conf.c ****                                         ep_type, token, pbuff, length,
 415:USB_HOST/Target/usbh_conf.c ****                                         do_ping);
 416:USB_HOST/Target/usbh_conf.c ****   usb_status =  USBH_Get_USB_Status(hal_status);
 417:USB_HOST/Target/usbh_conf.c **** 
 418:USB_HOST/Target/usbh_conf.c ****   return usb_status;
 419:USB_HOST/Target/usbh_conf.c **** }
 420:USB_HOST/Target/usbh_conf.c **** 
 421:USB_HOST/Target/usbh_conf.c **** /**
 422:USB_HOST/Target/usbh_conf.c ****   * @brief  Get a URB state from the low level driver.
 423:USB_HOST/Target/usbh_conf.c ****   * @param  phost: Host handle
 424:USB_HOST/Target/usbh_conf.c ****   * @param  pipe: Pipe index
 425:USB_HOST/Target/usbh_conf.c ****   *         This parameter can be a value from 1 to 15
 426:USB_HOST/Target/usbh_conf.c ****   * @retval URB state
 427:USB_HOST/Target/usbh_conf.c ****   *          This parameter can be one of the these values:
 428:USB_HOST/Target/usbh_conf.c ****   *            @arg URB_IDLE
 429:USB_HOST/Target/usbh_conf.c ****   *            @arg URB_DONE
 430:USB_HOST/Target/usbh_conf.c ****   *            @arg URB_NOTREADY
 431:USB_HOST/Target/usbh_conf.c ****   *            @arg URB_NYET
 432:USB_HOST/Target/usbh_conf.c ****   *            @arg URB_ERROR
 433:USB_HOST/Target/usbh_conf.c ****   *            @arg URB_STALL
 434:USB_HOST/Target/usbh_conf.c ****   */
 435:USB_HOST/Target/usbh_conf.c **** USBH_URBStateTypeDef USBH_LL_GetURBState(USBH_HandleTypeDef *phost, uint8_t pipe)
ARM GAS  /var/folders/sd/sw6_rvdd1xd6sxxq8gkv_lph0000gn/T//ccRPaCU6.s 			page 20


 436:USB_HOST/Target/usbh_conf.c **** {
 608              		.loc 1 436 1 is_stmt 1 view -0
 609              		.cfi_startproc
 610              		@ args = 0, pretend = 0, frame = 0
 611              		@ frame_needed = 0, uses_anonymous_args = 0
 612              		.loc 1 436 1 is_stmt 0 view .LVU132
 613 0000 08B5     		push	{r3, lr}
 614              	.LCFI13:
 615              		.cfi_def_cfa_offset 8
 616              		.cfi_offset 3, -8
 617              		.cfi_offset 14, -4
 437:USB_HOST/Target/usbh_conf.c ****   return (USBH_URBStateTypeDef)HAL_HCD_HC_GetURBState (phost->pData, pipe);
 618              		.loc 1 437 3 is_stmt 1 view .LVU133
 619              		.loc 1 437 32 is_stmt 0 view .LVU134
 620 0002 D0F8D003 		ldr	r0, [r0, #976]
 621              	.LVL49:
 622              		.loc 1 437 32 view .LVU135
 623 0006 FFF7FEFF 		bl	HAL_HCD_HC_GetURBState
 624              	.LVL50:
 438:USB_HOST/Target/usbh_conf.c **** }
 625              		.loc 1 438 1 view .LVU136
 626 000a 08BD     		pop	{r3, pc}
 627              		.cfi_endproc
 628              	.LFE151:
 630              		.section	.text.USBH_LL_DriverVBUS,"ax",%progbits
 631              		.align	1
 632              		.global	USBH_LL_DriverVBUS
 633              		.syntax unified
 634              		.thumb
 635              		.thumb_func
 636              		.fpu fpv4-sp-d16
 638              	USBH_LL_DriverVBUS:
 639              	.LVL51:
 640              	.LFB152:
 439:USB_HOST/Target/usbh_conf.c **** 
 440:USB_HOST/Target/usbh_conf.c **** /**
 441:USB_HOST/Target/usbh_conf.c ****   * @brief  Drive VBUS.
 442:USB_HOST/Target/usbh_conf.c ****   * @param  phost: Host handle
 443:USB_HOST/Target/usbh_conf.c ****   * @param  state : VBUS state
 444:USB_HOST/Target/usbh_conf.c ****   *          This parameter can be one of the these values:
 445:USB_HOST/Target/usbh_conf.c ****   *           0 : VBUS Inactive
 446:USB_HOST/Target/usbh_conf.c ****   *           1 : VBUS Active
 447:USB_HOST/Target/usbh_conf.c ****   * @retval Status
 448:USB_HOST/Target/usbh_conf.c ****   */
 449:USB_HOST/Target/usbh_conf.c **** USBH_StatusTypeDef USBH_LL_DriverVBUS(USBH_HandleTypeDef *phost, uint8_t state)
 450:USB_HOST/Target/usbh_conf.c **** {
 641              		.loc 1 450 1 is_stmt 1 view -0
 642              		.cfi_startproc
 643              		@ args = 0, pretend = 0, frame = 0
 644              		@ frame_needed = 0, uses_anonymous_args = 0
 645              		.loc 1 450 1 is_stmt 0 view .LVU138
 646 0000 08B5     		push	{r3, lr}
 647              	.LCFI14:
 648              		.cfi_def_cfa_offset 8
 649              		.cfi_offset 3, -8
 650              		.cfi_offset 14, -4
 451:USB_HOST/Target/usbh_conf.c ****   if (phost->id == HOST_FS) {
ARM GAS  /var/folders/sd/sw6_rvdd1xd6sxxq8gkv_lph0000gn/T//ccRPaCU6.s 			page 21


 651              		.loc 1 451 3 is_stmt 1 view .LVU139
 652              		.loc 1 451 12 is_stmt 0 view .LVU140
 653 0002 90F8CC33 		ldrb	r3, [r0, #972]	@ zero_extendqisi2
 654              		.loc 1 451 6 view .LVU141
 655 0006 012B     		cmp	r3, #1
 656 0008 04D0     		beq	.L48
 657              	.LVL52:
 658              	.L46:
 452:USB_HOST/Target/usbh_conf.c ****     MX_DriverVbusFS(state);
 453:USB_HOST/Target/usbh_conf.c ****   }
 454:USB_HOST/Target/usbh_conf.c **** 
 455:USB_HOST/Target/usbh_conf.c ****   /* USER CODE BEGIN 0 */
 456:USB_HOST/Target/usbh_conf.c **** 
 457:USB_HOST/Target/usbh_conf.c ****   /* USER CODE END 0*/
 458:USB_HOST/Target/usbh_conf.c **** 
 459:USB_HOST/Target/usbh_conf.c ****   HAL_Delay(200);
 659              		.loc 1 459 3 is_stmt 1 view .LVU142
 660 000a C820     		movs	r0, #200
 661 000c FFF7FEFF 		bl	HAL_Delay
 662              	.LVL53:
 460:USB_HOST/Target/usbh_conf.c ****   return USBH_OK;
 663              		.loc 1 460 3 view .LVU143
 461:USB_HOST/Target/usbh_conf.c **** }
 664              		.loc 1 461 1 is_stmt 0 view .LVU144
 665 0010 0020     		movs	r0, #0
 666 0012 08BD     		pop	{r3, pc}
 667              	.LVL54:
 668              	.L48:
 452:USB_HOST/Target/usbh_conf.c ****     MX_DriverVbusFS(state);
 669              		.loc 1 452 5 is_stmt 1 view .LVU145
 670 0014 0846     		mov	r0, r1
 671              	.LVL55:
 452:USB_HOST/Target/usbh_conf.c ****     MX_DriverVbusFS(state);
 672              		.loc 1 452 5 is_stmt 0 view .LVU146
 673 0016 FFF7FEFF 		bl	MX_DriverVbusFS
 674              	.LVL56:
 452:USB_HOST/Target/usbh_conf.c ****     MX_DriverVbusFS(state);
 675              		.loc 1 452 5 view .LVU147
 676 001a F6E7     		b	.L46
 677              		.cfi_endproc
 678              	.LFE152:
 680              		.section	.text.USBH_LL_SetToggle,"ax",%progbits
 681              		.align	1
 682              		.global	USBH_LL_SetToggle
 683              		.syntax unified
 684              		.thumb
 685              		.thumb_func
 686              		.fpu fpv4-sp-d16
 688              	USBH_LL_SetToggle:
 689              	.LVL57:
 690              	.LFB153:
 462:USB_HOST/Target/usbh_conf.c **** 
 463:USB_HOST/Target/usbh_conf.c **** /**
 464:USB_HOST/Target/usbh_conf.c ****   * @brief  Set toggle for a pipe.
 465:USB_HOST/Target/usbh_conf.c ****   * @param  phost: Host handle
 466:USB_HOST/Target/usbh_conf.c ****   * @param  pipe: Pipe index
 467:USB_HOST/Target/usbh_conf.c ****   * @param  toggle: toggle (0/1)
ARM GAS  /var/folders/sd/sw6_rvdd1xd6sxxq8gkv_lph0000gn/T//ccRPaCU6.s 			page 22


 468:USB_HOST/Target/usbh_conf.c ****   * @retval Status
 469:USB_HOST/Target/usbh_conf.c ****   */
 470:USB_HOST/Target/usbh_conf.c **** USBH_StatusTypeDef USBH_LL_SetToggle(USBH_HandleTypeDef *phost, uint8_t pipe, uint8_t toggle)
 471:USB_HOST/Target/usbh_conf.c **** {
 691              		.loc 1 471 1 is_stmt 1 view -0
 692              		.cfi_startproc
 693              		@ args = 0, pretend = 0, frame = 0
 694              		@ frame_needed = 0, uses_anonymous_args = 0
 695              		@ link register save eliminated.
 472:USB_HOST/Target/usbh_conf.c ****   HCD_HandleTypeDef *pHandle;
 696              		.loc 1 472 3 view .LVU149
 473:USB_HOST/Target/usbh_conf.c ****   pHandle = phost->pData;
 697              		.loc 1 473 3 view .LVU150
 698              		.loc 1 473 11 is_stmt 0 view .LVU151
 699 0000 D0F8D033 		ldr	r3, [r0, #976]
 700              	.LVL58:
 474:USB_HOST/Target/usbh_conf.c **** 
 475:USB_HOST/Target/usbh_conf.c ****   if(pHandle->hc[pipe].ep_is_in)
 701              		.loc 1 475 3 is_stmt 1 view .LVU152
 702              		.loc 1 475 23 is_stmt 0 view .LVU153
 703 0004 2C20     		movs	r0, #44
 704              	.LVL59:
 705              		.loc 1 475 23 view .LVU154
 706 0006 00FB0130 		mla	r0, r0, r1, r3
 707 000a 90F83B00 		ldrb	r0, [r0, #59]	@ zero_extendqisi2
 708              		.loc 1 475 5 view .LVU155
 709 000e 30B1     		cbz	r0, .L50
 476:USB_HOST/Target/usbh_conf.c ****   {
 477:USB_HOST/Target/usbh_conf.c ****     pHandle->hc[pipe].toggle_in = toggle;
 710              		.loc 1 477 5 is_stmt 1 view .LVU156
 711              		.loc 1 477 33 is_stmt 0 view .LVU157
 712 0010 2C20     		movs	r0, #44
 713 0012 00FB0133 		mla	r3, r0, r1, r3
 714              	.LVL60:
 715              		.loc 1 477 33 view .LVU158
 716 0016 83F85420 		strb	r2, [r3, #84]
 717              	.LVL61:
 718              	.L51:
 478:USB_HOST/Target/usbh_conf.c ****   }
 479:USB_HOST/Target/usbh_conf.c ****   else
 480:USB_HOST/Target/usbh_conf.c ****   {
 481:USB_HOST/Target/usbh_conf.c ****     pHandle->hc[pipe].toggle_out = toggle;
 482:USB_HOST/Target/usbh_conf.c ****   }
 483:USB_HOST/Target/usbh_conf.c **** 
 484:USB_HOST/Target/usbh_conf.c ****   return USBH_OK;
 719              		.loc 1 484 3 is_stmt 1 view .LVU159
 485:USB_HOST/Target/usbh_conf.c **** }
 720              		.loc 1 485 1 is_stmt 0 view .LVU160
 721 001a 0020     		movs	r0, #0
 722 001c 7047     		bx	lr
 723              	.LVL62:
 724              	.L50:
 481:USB_HOST/Target/usbh_conf.c ****   }
 725              		.loc 1 481 5 is_stmt 1 view .LVU161
 481:USB_HOST/Target/usbh_conf.c ****   }
 726              		.loc 1 481 34 is_stmt 0 view .LVU162
 727 001e 2C20     		movs	r0, #44
ARM GAS  /var/folders/sd/sw6_rvdd1xd6sxxq8gkv_lph0000gn/T//ccRPaCU6.s 			page 23


 728 0020 00FB0133 		mla	r3, r0, r1, r3
 729              	.LVL63:
 481:USB_HOST/Target/usbh_conf.c ****   }
 730              		.loc 1 481 34 view .LVU163
 731 0024 83F85520 		strb	r2, [r3, #85]
 732              	.LVL64:
 481:USB_HOST/Target/usbh_conf.c ****   }
 733              		.loc 1 481 34 view .LVU164
 734 0028 F7E7     		b	.L51
 735              		.cfi_endproc
 736              	.LFE153:
 738              		.section	.text.USBH_LL_GetToggle,"ax",%progbits
 739              		.align	1
 740              		.global	USBH_LL_GetToggle
 741              		.syntax unified
 742              		.thumb
 743              		.thumb_func
 744              		.fpu fpv4-sp-d16
 746              	USBH_LL_GetToggle:
 747              	.LVL65:
 748              	.LFB154:
 486:USB_HOST/Target/usbh_conf.c **** 
 487:USB_HOST/Target/usbh_conf.c **** /**
 488:USB_HOST/Target/usbh_conf.c ****   * @brief  Return the current toggle of a pipe.
 489:USB_HOST/Target/usbh_conf.c ****   * @param  phost: Host handle
 490:USB_HOST/Target/usbh_conf.c ****   * @param  pipe: Pipe index
 491:USB_HOST/Target/usbh_conf.c ****   * @retval toggle (0/1)
 492:USB_HOST/Target/usbh_conf.c ****   */
 493:USB_HOST/Target/usbh_conf.c **** uint8_t USBH_LL_GetToggle(USBH_HandleTypeDef *phost, uint8_t pipe)
 494:USB_HOST/Target/usbh_conf.c **** {
 749              		.loc 1 494 1 is_stmt 1 view -0
 750              		.cfi_startproc
 751              		@ args = 0, pretend = 0, frame = 0
 752              		@ frame_needed = 0, uses_anonymous_args = 0
 753              		@ link register save eliminated.
 495:USB_HOST/Target/usbh_conf.c ****   uint8_t toggle = 0;
 754              		.loc 1 495 3 view .LVU166
 496:USB_HOST/Target/usbh_conf.c ****   HCD_HandleTypeDef *pHandle;
 755              		.loc 1 496 3 view .LVU167
 497:USB_HOST/Target/usbh_conf.c ****   pHandle = phost->pData;
 756              		.loc 1 497 3 view .LVU168
 757              		.loc 1 497 11 is_stmt 0 view .LVU169
 758 0000 D0F8D033 		ldr	r3, [r0, #976]
 759              	.LVL66:
 498:USB_HOST/Target/usbh_conf.c **** 
 499:USB_HOST/Target/usbh_conf.c ****   if(pHandle->hc[pipe].ep_is_in)
 760              		.loc 1 499 3 is_stmt 1 view .LVU170
 761              		.loc 1 499 23 is_stmt 0 view .LVU171
 762 0004 2C22     		movs	r2, #44
 763 0006 02FB0132 		mla	r2, r2, r1, r3
 764 000a 92F83B20 		ldrb	r2, [r2, #59]	@ zero_extendqisi2
 765              		.loc 1 499 5 view .LVU172
 766 000e 2AB1     		cbz	r2, .L53
 500:USB_HOST/Target/usbh_conf.c ****   {
 501:USB_HOST/Target/usbh_conf.c ****     toggle = pHandle->hc[pipe].toggle_in;
 767              		.loc 1 501 5 is_stmt 1 view .LVU173
 768              		.loc 1 501 12 is_stmt 0 view .LVU174
ARM GAS  /var/folders/sd/sw6_rvdd1xd6sxxq8gkv_lph0000gn/T//ccRPaCU6.s 			page 24


 769 0010 2C22     		movs	r2, #44
 770 0012 02FB0133 		mla	r3, r2, r1, r3
 771              	.LVL67:
 772              		.loc 1 501 12 view .LVU175
 773 0016 93F85400 		ldrb	r0, [r3, #84]	@ zero_extendqisi2
 774              	.LVL68:
 775              		.loc 1 501 12 view .LVU176
 776 001a 7047     		bx	lr
 777              	.LVL69:
 778              	.L53:
 502:USB_HOST/Target/usbh_conf.c ****   }
 503:USB_HOST/Target/usbh_conf.c ****   else
 504:USB_HOST/Target/usbh_conf.c ****   {
 505:USB_HOST/Target/usbh_conf.c ****     toggle = pHandle->hc[pipe].toggle_out;
 779              		.loc 1 505 5 is_stmt 1 view .LVU177
 780              		.loc 1 505 12 is_stmt 0 view .LVU178
 781 001c 2C22     		movs	r2, #44
 782 001e 02FB0133 		mla	r3, r2, r1, r3
 783              	.LVL70:
 784              		.loc 1 505 12 view .LVU179
 785 0022 93F85500 		ldrb	r0, [r3, #85]	@ zero_extendqisi2
 786              	.LVL71:
 506:USB_HOST/Target/usbh_conf.c ****   }
 507:USB_HOST/Target/usbh_conf.c ****   return toggle;
 787              		.loc 1 507 3 is_stmt 1 view .LVU180
 508:USB_HOST/Target/usbh_conf.c **** }
 788              		.loc 1 508 1 is_stmt 0 view .LVU181
 789 0026 7047     		bx	lr
 790              		.cfi_endproc
 791              	.LFE154:
 793              		.section	.text.USBH_Delay,"ax",%progbits
 794              		.align	1
 795              		.global	USBH_Delay
 796              		.syntax unified
 797              		.thumb
 798              		.thumb_func
 799              		.fpu fpv4-sp-d16
 801              	USBH_Delay:
 802              	.LVL72:
 803              	.LFB155:
 509:USB_HOST/Target/usbh_conf.c **** 
 510:USB_HOST/Target/usbh_conf.c **** /**
 511:USB_HOST/Target/usbh_conf.c ****   * @brief  Delay routine for the USB Host Library
 512:USB_HOST/Target/usbh_conf.c ****   * @param  Delay: Delay in ms
 513:USB_HOST/Target/usbh_conf.c ****   * @retval None
 514:USB_HOST/Target/usbh_conf.c ****   */
 515:USB_HOST/Target/usbh_conf.c **** void USBH_Delay(uint32_t Delay)
 516:USB_HOST/Target/usbh_conf.c **** {
 804              		.loc 1 516 1 is_stmt 1 view -0
 805              		.cfi_startproc
 806              		@ args = 0, pretend = 0, frame = 0
 807              		@ frame_needed = 0, uses_anonymous_args = 0
 808              		.loc 1 516 1 is_stmt 0 view .LVU183
 809 0000 08B5     		push	{r3, lr}
 810              	.LCFI15:
 811              		.cfi_def_cfa_offset 8
 812              		.cfi_offset 3, -8
ARM GAS  /var/folders/sd/sw6_rvdd1xd6sxxq8gkv_lph0000gn/T//ccRPaCU6.s 			page 25


 813              		.cfi_offset 14, -4
 517:USB_HOST/Target/usbh_conf.c ****   HAL_Delay(Delay);
 814              		.loc 1 517 3 is_stmt 1 view .LVU184
 815 0002 FFF7FEFF 		bl	HAL_Delay
 816              	.LVL73:
 518:USB_HOST/Target/usbh_conf.c **** }
 817              		.loc 1 518 1 is_stmt 0 view .LVU185
 818 0006 08BD     		pop	{r3, pc}
 819              		.cfi_endproc
 820              	.LFE155:
 822              		.section	.text.USBH_Get_USB_Status,"ax",%progbits
 823              		.align	1
 824              		.global	USBH_Get_USB_Status
 825              		.syntax unified
 826              		.thumb
 827              		.thumb_func
 828              		.fpu fpv4-sp-d16
 830              	USBH_Get_USB_Status:
 831              	.LVL74:
 832              	.LFB156:
 519:USB_HOST/Target/usbh_conf.c **** 
 520:USB_HOST/Target/usbh_conf.c **** /**
 521:USB_HOST/Target/usbh_conf.c ****   * @brief  Retuns the USB status depending on the HAL status:
 522:USB_HOST/Target/usbh_conf.c ****   * @param  hal_status: HAL status
 523:USB_HOST/Target/usbh_conf.c ****   * @retval USB status
 524:USB_HOST/Target/usbh_conf.c ****   */
 525:USB_HOST/Target/usbh_conf.c **** USBH_StatusTypeDef USBH_Get_USB_Status(HAL_StatusTypeDef hal_status)
 526:USB_HOST/Target/usbh_conf.c **** {
 833              		.loc 1 526 1 is_stmt 1 view -0
 834              		.cfi_startproc
 835              		@ args = 0, pretend = 0, frame = 0
 836              		@ frame_needed = 0, uses_anonymous_args = 0
 837              		@ link register save eliminated.
 527:USB_HOST/Target/usbh_conf.c ****   USBH_StatusTypeDef usb_status = USBH_OK;
 838              		.loc 1 527 3 view .LVU187
 528:USB_HOST/Target/usbh_conf.c **** 
 529:USB_HOST/Target/usbh_conf.c ****   switch (hal_status)
 839              		.loc 1 529 3 view .LVU188
 840 0000 0228     		cmp	r0, #2
 841 0002 05D8     		bhi	.L62
 842 0004 DFE800F0 		tbb	[pc, r0]
 843              	.L60:
 844 0008 05       		.byte	(.L58-.L60)/2
 845 0009 04       		.byte	(.L62-.L60)/2
 846 000a 02       		.byte	(.L59-.L60)/2
 847 000b 00       		.p2align 1
 848              	.L59:
 530:USB_HOST/Target/usbh_conf.c ****   {
 531:USB_HOST/Target/usbh_conf.c ****     case HAL_OK :
 532:USB_HOST/Target/usbh_conf.c ****       usb_status = USBH_OK;
 533:USB_HOST/Target/usbh_conf.c ****     break;
 534:USB_HOST/Target/usbh_conf.c ****     case HAL_ERROR :
 535:USB_HOST/Target/usbh_conf.c ****       usb_status = USBH_FAIL;
 536:USB_HOST/Target/usbh_conf.c ****     break;
 537:USB_HOST/Target/usbh_conf.c ****     case HAL_BUSY :
 538:USB_HOST/Target/usbh_conf.c ****       usb_status = USBH_BUSY;
 849              		.loc 1 538 7 view .LVU189
ARM GAS  /var/folders/sd/sw6_rvdd1xd6sxxq8gkv_lph0000gn/T//ccRPaCU6.s 			page 26


 850              	.LVL75:
 539:USB_HOST/Target/usbh_conf.c ****     break;
 851              		.loc 1 539 5 view .LVU190
 538:USB_HOST/Target/usbh_conf.c ****     break;
 852              		.loc 1 538 18 is_stmt 0 view .LVU191
 853 000c 0120     		movs	r0, #1
 854              	.LVL76:
 855              		.loc 1 539 5 view .LVU192
 856 000e 7047     		bx	lr
 857              	.LVL77:
 858              	.L62:
 535:USB_HOST/Target/usbh_conf.c ****     break;
 859              		.loc 1 535 18 view .LVU193
 860 0010 0220     		movs	r0, #2
 861              	.LVL78:
 862              	.L58:
 540:USB_HOST/Target/usbh_conf.c ****     case HAL_TIMEOUT :
 541:USB_HOST/Target/usbh_conf.c ****       usb_status = USBH_FAIL;
 542:USB_HOST/Target/usbh_conf.c ****     break;
 543:USB_HOST/Target/usbh_conf.c ****     default :
 544:USB_HOST/Target/usbh_conf.c ****       usb_status = USBH_FAIL;
 545:USB_HOST/Target/usbh_conf.c ****     break;
 546:USB_HOST/Target/usbh_conf.c ****   }
 547:USB_HOST/Target/usbh_conf.c ****   return usb_status;
 863              		.loc 1 547 3 is_stmt 1 view .LVU194
 548:USB_HOST/Target/usbh_conf.c **** }
 864              		.loc 1 548 1 is_stmt 0 view .LVU195
 865 0012 7047     		bx	lr
 866              		.cfi_endproc
 867              	.LFE156:
 869              		.section	.text.USBH_LL_DeInit,"ax",%progbits
 870              		.align	1
 871              		.global	USBH_LL_DeInit
 872              		.syntax unified
 873              		.thumb
 874              		.thumb_func
 875              		.fpu fpv4-sp-d16
 877              	USBH_LL_DeInit:
 878              	.LVL79:
 879              	.LFB142:
 233:USB_HOST/Target/usbh_conf.c ****   HAL_StatusTypeDef hal_status = HAL_OK;
 880              		.loc 1 233 1 is_stmt 1 view -0
 881              		.cfi_startproc
 882              		@ args = 0, pretend = 0, frame = 0
 883              		@ frame_needed = 0, uses_anonymous_args = 0
 233:USB_HOST/Target/usbh_conf.c ****   HAL_StatusTypeDef hal_status = HAL_OK;
 884              		.loc 1 233 1 is_stmt 0 view .LVU197
 885 0000 08B5     		push	{r3, lr}
 886              	.LCFI16:
 887              		.cfi_def_cfa_offset 8
 888              		.cfi_offset 3, -8
 889              		.cfi_offset 14, -4
 234:USB_HOST/Target/usbh_conf.c ****   USBH_StatusTypeDef usb_status = USBH_OK;
 890              		.loc 1 234 3 is_stmt 1 view .LVU198
 891              	.LVL80:
 235:USB_HOST/Target/usbh_conf.c **** 
 892              		.loc 1 235 3 view .LVU199
ARM GAS  /var/folders/sd/sw6_rvdd1xd6sxxq8gkv_lph0000gn/T//ccRPaCU6.s 			page 27


 237:USB_HOST/Target/usbh_conf.c **** 
 893              		.loc 1 237 3 view .LVU200
 237:USB_HOST/Target/usbh_conf.c **** 
 894              		.loc 1 237 16 is_stmt 0 view .LVU201
 895 0002 D0F8D003 		ldr	r0, [r0, #976]
 896              	.LVL81:
 237:USB_HOST/Target/usbh_conf.c **** 
 897              		.loc 1 237 16 view .LVU202
 898 0006 FFF7FEFF 		bl	HAL_HCD_DeInit
 899              	.LVL82:
 239:USB_HOST/Target/usbh_conf.c **** 
 900              		.loc 1 239 3 is_stmt 1 view .LVU203
 239:USB_HOST/Target/usbh_conf.c **** 
 901              		.loc 1 239 16 is_stmt 0 view .LVU204
 902 000a FFF7FEFF 		bl	USBH_Get_USB_Status
 903              	.LVL83:
 241:USB_HOST/Target/usbh_conf.c **** }
 904              		.loc 1 241 3 is_stmt 1 view .LVU205
 242:USB_HOST/Target/usbh_conf.c **** 
 905              		.loc 1 242 1 is_stmt 0 view .LVU206
 906 000e 08BD     		pop	{r3, pc}
 907              		.cfi_endproc
 908              	.LFE142:
 910              		.section	.text.USBH_LL_Start,"ax",%progbits
 911              		.align	1
 912              		.global	USBH_LL_Start
 913              		.syntax unified
 914              		.thumb
 915              		.thumb_func
 916              		.fpu fpv4-sp-d16
 918              	USBH_LL_Start:
 919              	.LVL84:
 920              	.LFB143:
 250:USB_HOST/Target/usbh_conf.c ****   HAL_StatusTypeDef hal_status = HAL_OK;
 921              		.loc 1 250 1 is_stmt 1 view -0
 922              		.cfi_startproc
 923              		@ args = 0, pretend = 0, frame = 0
 924              		@ frame_needed = 0, uses_anonymous_args = 0
 250:USB_HOST/Target/usbh_conf.c ****   HAL_StatusTypeDef hal_status = HAL_OK;
 925              		.loc 1 250 1 is_stmt 0 view .LVU208
 926 0000 08B5     		push	{r3, lr}
 927              	.LCFI17:
 928              		.cfi_def_cfa_offset 8
 929              		.cfi_offset 3, -8
 930              		.cfi_offset 14, -4
 251:USB_HOST/Target/usbh_conf.c ****   USBH_StatusTypeDef usb_status = USBH_OK;
 931              		.loc 1 251 3 is_stmt 1 view .LVU209
 932              	.LVL85:
 252:USB_HOST/Target/usbh_conf.c **** 
 933              		.loc 1 252 3 view .LVU210
 254:USB_HOST/Target/usbh_conf.c **** 
 934              		.loc 1 254 3 view .LVU211
 254:USB_HOST/Target/usbh_conf.c **** 
 935              		.loc 1 254 16 is_stmt 0 view .LVU212
 936 0002 D0F8D003 		ldr	r0, [r0, #976]
 937              	.LVL86:
 254:USB_HOST/Target/usbh_conf.c **** 
ARM GAS  /var/folders/sd/sw6_rvdd1xd6sxxq8gkv_lph0000gn/T//ccRPaCU6.s 			page 28


 938              		.loc 1 254 16 view .LVU213
 939 0006 FFF7FEFF 		bl	HAL_HCD_Start
 940              	.LVL87:
 256:USB_HOST/Target/usbh_conf.c **** 
 941              		.loc 1 256 3 is_stmt 1 view .LVU214
 256:USB_HOST/Target/usbh_conf.c **** 
 942              		.loc 1 256 16 is_stmt 0 view .LVU215
 943 000a FFF7FEFF 		bl	USBH_Get_USB_Status
 944              	.LVL88:
 258:USB_HOST/Target/usbh_conf.c **** }
 945              		.loc 1 258 3 is_stmt 1 view .LVU216
 259:USB_HOST/Target/usbh_conf.c **** 
 946              		.loc 1 259 1 is_stmt 0 view .LVU217
 947 000e 08BD     		pop	{r3, pc}
 948              		.cfi_endproc
 949              	.LFE143:
 951              		.section	.text.USBH_LL_Stop,"ax",%progbits
 952              		.align	1
 953              		.global	USBH_LL_Stop
 954              		.syntax unified
 955              		.thumb
 956              		.thumb_func
 957              		.fpu fpv4-sp-d16
 959              	USBH_LL_Stop:
 960              	.LVL89:
 961              	.LFB144:
 267:USB_HOST/Target/usbh_conf.c ****   HAL_StatusTypeDef hal_status = HAL_OK;
 962              		.loc 1 267 1 is_stmt 1 view -0
 963              		.cfi_startproc
 964              		@ args = 0, pretend = 0, frame = 0
 965              		@ frame_needed = 0, uses_anonymous_args = 0
 267:USB_HOST/Target/usbh_conf.c ****   HAL_StatusTypeDef hal_status = HAL_OK;
 966              		.loc 1 267 1 is_stmt 0 view .LVU219
 967 0000 08B5     		push	{r3, lr}
 968              	.LCFI18:
 969              		.cfi_def_cfa_offset 8
 970              		.cfi_offset 3, -8
 971              		.cfi_offset 14, -4
 268:USB_HOST/Target/usbh_conf.c ****   USBH_StatusTypeDef usb_status = USBH_OK;
 972              		.loc 1 268 3 is_stmt 1 view .LVU220
 973              	.LVL90:
 269:USB_HOST/Target/usbh_conf.c **** 
 974              		.loc 1 269 3 view .LVU221
 271:USB_HOST/Target/usbh_conf.c **** 
 975              		.loc 1 271 3 view .LVU222
 271:USB_HOST/Target/usbh_conf.c **** 
 976              		.loc 1 271 16 is_stmt 0 view .LVU223
 977 0002 D0F8D003 		ldr	r0, [r0, #976]
 978              	.LVL91:
 271:USB_HOST/Target/usbh_conf.c **** 
 979              		.loc 1 271 16 view .LVU224
 980 0006 FFF7FEFF 		bl	HAL_HCD_Stop
 981              	.LVL92:
 273:USB_HOST/Target/usbh_conf.c **** 
 982              		.loc 1 273 3 is_stmt 1 view .LVU225
 273:USB_HOST/Target/usbh_conf.c **** 
 983              		.loc 1 273 16 is_stmt 0 view .LVU226
ARM GAS  /var/folders/sd/sw6_rvdd1xd6sxxq8gkv_lph0000gn/T//ccRPaCU6.s 			page 29


 984 000a FFF7FEFF 		bl	USBH_Get_USB_Status
 985              	.LVL93:
 275:USB_HOST/Target/usbh_conf.c **** }
 986              		.loc 1 275 3 is_stmt 1 view .LVU227
 276:USB_HOST/Target/usbh_conf.c **** 
 987              		.loc 1 276 1 is_stmt 0 view .LVU228
 988 000e 08BD     		pop	{r3, pc}
 989              		.cfi_endproc
 990              	.LFE144:
 992              		.section	.text.USBH_LL_ResetPort,"ax",%progbits
 993              		.align	1
 994              		.global	USBH_LL_ResetPort
 995              		.syntax unified
 996              		.thumb
 997              		.thumb_func
 998              		.fpu fpv4-sp-d16
 1000              	USBH_LL_ResetPort:
 1001              	.LVL94:
 1002              	.LFB146:
 314:USB_HOST/Target/usbh_conf.c ****   HAL_StatusTypeDef hal_status = HAL_OK;
 1003              		.loc 1 314 1 is_stmt 1 view -0
 1004              		.cfi_startproc
 1005              		@ args = 0, pretend = 0, frame = 0
 1006              		@ frame_needed = 0, uses_anonymous_args = 0
 314:USB_HOST/Target/usbh_conf.c ****   HAL_StatusTypeDef hal_status = HAL_OK;
 1007              		.loc 1 314 1 is_stmt 0 view .LVU230
 1008 0000 08B5     		push	{r3, lr}
 1009              	.LCFI19:
 1010              		.cfi_def_cfa_offset 8
 1011              		.cfi_offset 3, -8
 1012              		.cfi_offset 14, -4
 315:USB_HOST/Target/usbh_conf.c ****   USBH_StatusTypeDef usb_status = USBH_OK;
 1013              		.loc 1 315 3 is_stmt 1 view .LVU231
 1014              	.LVL95:
 316:USB_HOST/Target/usbh_conf.c **** 
 1015              		.loc 1 316 3 view .LVU232
 318:USB_HOST/Target/usbh_conf.c **** 
 1016              		.loc 1 318 3 view .LVU233
 318:USB_HOST/Target/usbh_conf.c **** 
 1017              		.loc 1 318 16 is_stmt 0 view .LVU234
 1018 0002 D0F8D003 		ldr	r0, [r0, #976]
 1019              	.LVL96:
 318:USB_HOST/Target/usbh_conf.c **** 
 1020              		.loc 1 318 16 view .LVU235
 1021 0006 FFF7FEFF 		bl	HAL_HCD_ResetPort
 1022              	.LVL97:
 320:USB_HOST/Target/usbh_conf.c **** 
 1023              		.loc 1 320 3 is_stmt 1 view .LVU236
 320:USB_HOST/Target/usbh_conf.c **** 
 1024              		.loc 1 320 16 is_stmt 0 view .LVU237
 1025 000a FFF7FEFF 		bl	USBH_Get_USB_Status
 1026              	.LVL98:
 322:USB_HOST/Target/usbh_conf.c **** }
 1027              		.loc 1 322 3 is_stmt 1 view .LVU238
 323:USB_HOST/Target/usbh_conf.c **** 
 1028              		.loc 1 323 1 is_stmt 0 view .LVU239
 1029 000e 08BD     		pop	{r3, pc}
ARM GAS  /var/folders/sd/sw6_rvdd1xd6sxxq8gkv_lph0000gn/T//ccRPaCU6.s 			page 30


 1030              		.cfi_endproc
 1031              	.LFE146:
 1033              		.section	.text.USBH_LL_OpenPipe,"ax",%progbits
 1034              		.align	1
 1035              		.global	USBH_LL_OpenPipe
 1036              		.syntax unified
 1037              		.thumb
 1038              		.thumb_func
 1039              		.fpu fpv4-sp-d16
 1041              	USBH_LL_OpenPipe:
 1042              	.LVL99:
 1043              	.LFB148:
 349:USB_HOST/Target/usbh_conf.c ****   HAL_StatusTypeDef hal_status = HAL_OK;
 1044              		.loc 1 349 1 is_stmt 1 view -0
 1045              		.cfi_startproc
 1046              		@ args = 12, pretend = 0, frame = 0
 1047              		@ frame_needed = 0, uses_anonymous_args = 0
 349:USB_HOST/Target/usbh_conf.c ****   HAL_StatusTypeDef hal_status = HAL_OK;
 1048              		.loc 1 349 1 is_stmt 0 view .LVU241
 1049 0000 10B5     		push	{r4, lr}
 1050              	.LCFI20:
 1051              		.cfi_def_cfa_offset 8
 1052              		.cfi_offset 4, -8
 1053              		.cfi_offset 14, -4
 1054 0002 84B0     		sub	sp, sp, #16
 1055              	.LCFI21:
 1056              		.cfi_def_cfa_offset 24
 350:USB_HOST/Target/usbh_conf.c ****   USBH_StatusTypeDef usb_status = USBH_OK;
 1057              		.loc 1 350 3 is_stmt 1 view .LVU242
 1058              	.LVL100:
 351:USB_HOST/Target/usbh_conf.c **** 
 1059              		.loc 1 351 3 view .LVU243
 353:USB_HOST/Target/usbh_conf.c ****                                dev_address, speed, ep_type, mps);
 1060              		.loc 1 353 3 view .LVU244
 353:USB_HOST/Target/usbh_conf.c ****                                dev_address, speed, ep_type, mps);
 1061              		.loc 1 353 37 is_stmt 0 view .LVU245
 1062 0004 D0F8D003 		ldr	r0, [r0, #976]
 1063              	.LVL101:
 353:USB_HOST/Target/usbh_conf.c ****                                dev_address, speed, ep_type, mps);
 1064              		.loc 1 353 16 view .LVU246
 1065 0008 BDF82040 		ldrh	r4, [sp, #32]
 1066 000c 0294     		str	r4, [sp, #8]
 1067 000e 9DF81C40 		ldrb	r4, [sp, #28]	@ zero_extendqisi2
 1068 0012 0194     		str	r4, [sp, #4]
 1069 0014 9DF81840 		ldrb	r4, [sp, #24]	@ zero_extendqisi2
 1070 0018 0094     		str	r4, [sp]
 1071 001a FFF7FEFF 		bl	HAL_HCD_HC_Init
 1072              	.LVL102:
 356:USB_HOST/Target/usbh_conf.c **** 
 1073              		.loc 1 356 3 is_stmt 1 view .LVU247
 356:USB_HOST/Target/usbh_conf.c **** 
 1074              		.loc 1 356 16 is_stmt 0 view .LVU248
 1075 001e FFF7FEFF 		bl	USBH_Get_USB_Status
 1076              	.LVL103:
 358:USB_HOST/Target/usbh_conf.c **** }
 1077              		.loc 1 358 3 is_stmt 1 view .LVU249
 359:USB_HOST/Target/usbh_conf.c **** 
ARM GAS  /var/folders/sd/sw6_rvdd1xd6sxxq8gkv_lph0000gn/T//ccRPaCU6.s 			page 31


 1078              		.loc 1 359 1 is_stmt 0 view .LVU250
 1079 0022 04B0     		add	sp, sp, #16
 1080              	.LCFI22:
 1081              		.cfi_def_cfa_offset 8
 1082              		@ sp needed
 1083 0024 10BD     		pop	{r4, pc}
 359:USB_HOST/Target/usbh_conf.c **** 
 1084              		.loc 1 359 1 view .LVU251
 1085              		.cfi_endproc
 1086              	.LFE148:
 1088              		.section	.text.USBH_LL_ClosePipe,"ax",%progbits
 1089              		.align	1
 1090              		.global	USBH_LL_ClosePipe
 1091              		.syntax unified
 1092              		.thumb
 1093              		.thumb_func
 1094              		.fpu fpv4-sp-d16
 1096              	USBH_LL_ClosePipe:
 1097              	.LVL104:
 1098              	.LFB149:
 368:USB_HOST/Target/usbh_conf.c ****   HAL_StatusTypeDef hal_status = HAL_OK;
 1099              		.loc 1 368 1 is_stmt 1 view -0
 1100              		.cfi_startproc
 1101              		@ args = 0, pretend = 0, frame = 0
 1102              		@ frame_needed = 0, uses_anonymous_args = 0
 368:USB_HOST/Target/usbh_conf.c ****   HAL_StatusTypeDef hal_status = HAL_OK;
 1103              		.loc 1 368 1 is_stmt 0 view .LVU253
 1104 0000 08B5     		push	{r3, lr}
 1105              	.LCFI23:
 1106              		.cfi_def_cfa_offset 8
 1107              		.cfi_offset 3, -8
 1108              		.cfi_offset 14, -4
 369:USB_HOST/Target/usbh_conf.c ****   USBH_StatusTypeDef usb_status = USBH_OK;
 1109              		.loc 1 369 3 is_stmt 1 view .LVU254
 1110              	.LVL105:
 370:USB_HOST/Target/usbh_conf.c **** 
 1111              		.loc 1 370 3 view .LVU255
 372:USB_HOST/Target/usbh_conf.c **** 
 1112              		.loc 1 372 3 view .LVU256
 372:USB_HOST/Target/usbh_conf.c **** 
 1113              		.loc 1 372 16 is_stmt 0 view .LVU257
 1114 0002 D0F8D003 		ldr	r0, [r0, #976]
 1115              	.LVL106:
 372:USB_HOST/Target/usbh_conf.c **** 
 1116              		.loc 1 372 16 view .LVU258
 1117 0006 FFF7FEFF 		bl	HAL_HCD_HC_Halt
 1118              	.LVL107:
 374:USB_HOST/Target/usbh_conf.c **** 
 1119              		.loc 1 374 3 is_stmt 1 view .LVU259
 374:USB_HOST/Target/usbh_conf.c **** 
 1120              		.loc 1 374 16 is_stmt 0 view .LVU260
 1121 000a FFF7FEFF 		bl	USBH_Get_USB_Status
 1122              	.LVL108:
 376:USB_HOST/Target/usbh_conf.c **** }
 1123              		.loc 1 376 3 is_stmt 1 view .LVU261
 377:USB_HOST/Target/usbh_conf.c **** 
 1124              		.loc 1 377 1 is_stmt 0 view .LVU262
ARM GAS  /var/folders/sd/sw6_rvdd1xd6sxxq8gkv_lph0000gn/T//ccRPaCU6.s 			page 32


 1125 000e 08BD     		pop	{r3, pc}
 1126              		.cfi_endproc
 1127              	.LFE149:
 1129              		.section	.text.USBH_LL_SubmitURB,"ax",%progbits
 1130              		.align	1
 1131              		.global	USBH_LL_SubmitURB
 1132              		.syntax unified
 1133              		.thumb
 1134              		.thumb_func
 1135              		.fpu fpv4-sp-d16
 1137              	USBH_LL_SubmitURB:
 1138              	.LVL109:
 1139              	.LFB150:
 409:USB_HOST/Target/usbh_conf.c ****   HAL_StatusTypeDef hal_status = HAL_OK;
 1140              		.loc 1 409 1 is_stmt 1 view -0
 1141              		.cfi_startproc
 1142              		@ args = 16, pretend = 0, frame = 0
 1143              		@ frame_needed = 0, uses_anonymous_args = 0
 409:USB_HOST/Target/usbh_conf.c ****   HAL_StatusTypeDef hal_status = HAL_OK;
 1144              		.loc 1 409 1 is_stmt 0 view .LVU264
 1145 0000 10B5     		push	{r4, lr}
 1146              	.LCFI24:
 1147              		.cfi_def_cfa_offset 8
 1148              		.cfi_offset 4, -8
 1149              		.cfi_offset 14, -4
 1150 0002 84B0     		sub	sp, sp, #16
 1151              	.LCFI25:
 1152              		.cfi_def_cfa_offset 24
 410:USB_HOST/Target/usbh_conf.c ****   USBH_StatusTypeDef usb_status = USBH_OK;
 1153              		.loc 1 410 3 is_stmt 1 view .LVU265
 1154              	.LVL110:
 411:USB_HOST/Target/usbh_conf.c **** 
 1155              		.loc 1 411 3 view .LVU266
 413:USB_HOST/Target/usbh_conf.c ****                                         ep_type, token, pbuff, length,
 1156              		.loc 1 413 3 view .LVU267
 413:USB_HOST/Target/usbh_conf.c ****                                         ep_type, token, pbuff, length,
 1157              		.loc 1 413 46 is_stmt 0 view .LVU268
 1158 0004 D0F8D003 		ldr	r0, [r0, #976]
 1159              	.LVL111:
 413:USB_HOST/Target/usbh_conf.c ****                                         ep_type, token, pbuff, length,
 1160              		.loc 1 413 16 view .LVU269
 1161 0008 9DF82440 		ldrb	r4, [sp, #36]	@ zero_extendqisi2
 1162 000c 0394     		str	r4, [sp, #12]
 1163 000e BDF82040 		ldrh	r4, [sp, #32]
 1164 0012 0294     		str	r4, [sp, #8]
 1165 0014 079C     		ldr	r4, [sp, #28]
 1166 0016 0194     		str	r4, [sp, #4]
 1167 0018 9DF81840 		ldrb	r4, [sp, #24]	@ zero_extendqisi2
 1168 001c 0094     		str	r4, [sp]
 1169 001e FFF7FEFF 		bl	HAL_HCD_HC_SubmitRequest
 1170              	.LVL112:
 416:USB_HOST/Target/usbh_conf.c **** 
 1171              		.loc 1 416 3 is_stmt 1 view .LVU270
 416:USB_HOST/Target/usbh_conf.c **** 
 1172              		.loc 1 416 17 is_stmt 0 view .LVU271
 1173 0022 FFF7FEFF 		bl	USBH_Get_USB_Status
 1174              	.LVL113:
ARM GAS  /var/folders/sd/sw6_rvdd1xd6sxxq8gkv_lph0000gn/T//ccRPaCU6.s 			page 33


 418:USB_HOST/Target/usbh_conf.c **** }
 1175              		.loc 1 418 3 is_stmt 1 view .LVU272
 419:USB_HOST/Target/usbh_conf.c **** 
 1176              		.loc 1 419 1 is_stmt 0 view .LVU273
 1177 0026 04B0     		add	sp, sp, #16
 1178              	.LCFI26:
 1179              		.cfi_def_cfa_offset 8
 1180              		@ sp needed
 1181 0028 10BD     		pop	{r4, pc}
 419:USB_HOST/Target/usbh_conf.c **** 
 1182              		.loc 1 419 1 view .LVU274
 1183              		.cfi_endproc
 1184              	.LFE150:
 1186              		.global	hhcd_USB_OTG_FS
 1187              		.section	.bss.hhcd_USB_OTG_FS,"aw",%nobits
 1188              		.align	2
 1189              		.set	.LANCHOR0,. + 0
 1192              	hhcd_USB_OTG_FS:
 1193 0000 00000000 		.space	772
 1193      00000000 
 1193      00000000 
 1193      00000000 
 1193      00000000 
 1194              		.text
 1195              	.Letext0:
 1196              		.file 2 "/opt/homebrew/Caskroom/gcc-arm-embedded/10-2020-q4-major/gcc-arm-none-eabi-10-2020-q4-maj
 1197              		.file 3 "/opt/homebrew/Caskroom/gcc-arm-embedded/10-2020-q4-major/gcc-arm-none-eabi-10-2020-q4-maj
 1198              		.file 4 "Drivers/CMSIS/Device/ST/STM32F4xx/Include/stm32f407xx.h"
 1199              		.file 5 "Drivers/CMSIS/Device/ST/STM32F4xx/Include/stm32f4xx.h"
 1200              		.file 6 "Drivers/STM32F4xx_HAL_Driver/Inc/stm32f4xx_hal_def.h"
 1201              		.file 7 "Drivers/STM32F4xx_HAL_Driver/Inc/stm32f4xx_hal_gpio.h"
 1202              		.file 8 "Drivers/STM32F4xx_HAL_Driver/Inc/stm32f4xx_ll_usb.h"
 1203              		.file 9 "Drivers/STM32F4xx_HAL_Driver/Inc/stm32f4xx_hal_hcd.h"
 1204              		.file 10 "Middlewares/ST/STM32_USB_Host_Library/Core/Inc/usbh_def.h"
 1205              		.file 11 "Drivers/STM32F4xx_HAL_Driver/Inc/stm32f4xx_hal.h"
 1206              		.file 12 "USB_HOST/Target/usbh_platform.h"
 1207              		.file 13 "Middlewares/ST/STM32_USB_Host_Library/Core/Inc/usbh_core.h"
 1208              		.file 14 "Drivers/STM32F4xx_HAL_Driver/Inc/stm32f4xx_hal_cortex.h"
ARM GAS  /var/folders/sd/sw6_rvdd1xd6sxxq8gkv_lph0000gn/T//ccRPaCU6.s 			page 34

